(dp0
S'2008-11-17'
p1
F0.83
sS'2008-11-16'
p2
F0.89
sS'2008-11-15'
p3
F0.83
sS'2008-11-14'
p4
F0.85
sS'2008-11-13'
p5
F0.82
sS'2008-11-12'
p6
F0.87
sS'2008-11-11'
p7
F0.93
sS'2008-11-10'
p8
F0.87
sS'2015-11-11'
p9
F0.88
sS'2015-11-10'
p10
F0.89
sS'2015-11-13'
p11
F0.87
sS'2015-11-12'
p12
F0.87
sS'2015-11-15'
p13
F0.87
sS'2015-11-14'
p14
F0.89
sS'2008-11-19'
p15
F0.71
sS'2008-11-18'
p16
F0.8
sS'2013-04-19'
p17
F0.58
sS'2013-04-18'
p18
F0.44
sS'2015-11-29'
p19
F0.81
sS'2013-01-01'
p20
F0.94
sS'2013-01-03'
p21
F0.82
sS'2013-01-02'
p22
F0.85
sS'2013-01-05'
p23
F0.86
sS'2013-01-04'
p24
F0.91
sS'2012-03-28'
p25
F0.81
sS'2013-01-06'
p26
F0.83
sS'2013-01-09'
p27
F0.86
sS'2013-01-08'
p28
F0.84
sS'2006-08-29'
p29
F0.85
sS'2014-03-30'
p30
F0.81
sS'2012-03-29'
p31
F0.84
sS'2008-07-30'
p32
F0.91
sS'2013-04-16'
p33
F0.59
sS'2012-03-19'
p34
F0.81
sS'2012-02-27'
p35
F0.91
sS'2010-05-08'
p36
F0.56
sS'2010-05-09'
p37
F0.61
sS'2010-05-06'
p38
F0.66
sS'2010-05-07'
p39
F0.59
sS'2010-05-04'
p40
F0.59
sS'2010-05-05'
p41
F0.69
sS'2010-05-02'
p42
F0.57
sS'2010-05-03'
p43
F0.69
sS'2012-03-17'
p44
F0.77
sS'2010-05-01'
p45
F0.54
sS'2009-09-13'
p46
F0.65
sS'2012-02-24'
p47
F0.66
sS'2009-09-12'
p48
F0.9
sS'2012-02-23'
p49
F0.83
sS'2012-02-22'
p50
F0.84
sS'2012-02-21'
p51
F0.88
sS'2012-02-20'
p52
F0.85
sS'2008-04-22'
p53
F0.57
sS'2014-08-09'
p54
F0.84
sS'2014-08-08'
p55
F0.79
sS'2009-09-18'
p56
F0.78
sS'2014-08-01'
p57
F0.79
sS'2014-08-03'
p58
F0.74
sS'2014-08-02'
p59
F0.79
sS'2014-08-05'
p60
F0.84
sS'2014-08-04'
p61
F0.89
sS'2014-08-07'
p62
F0.82
sS'2007-03-30'
p63
F0.84
sS'2011-05-07'
p64
F0.75
sS'2011-05-06'
p65
F0.7
sS'2011-05-05'
p66
F0.71
sS'2011-05-04'
p67
F0.67
sS'2011-05-03'
p68
F0.65
sS'2011-05-02'
p69
F0.59
sS'2011-05-01'
p70
F0.71
sS'2011-05-09'
p71
F0.61
sS'2011-05-08'
p72
F0.69
sS'2014-11-14'
p73
F0.93
sS'2014-11-15'
p74
F0.91
sS'2014-11-16'
p75
F0.89
sS'2014-11-17'
p76
F0.9
sS'2014-11-10'
p77
F0.88
sS'2014-11-11'
p78
F0.92
sS'2014-11-12'
p79
F0.84
sS'2014-11-13'
p80
F0.86
sS'2014-11-18'
p81
F0.9
sS'2014-11-19'
p82
F0.87
sS'2010-10-26'
p83
F0.86
sS'2012-04-10'
p84
F0.78
sS'2012-04-11'
p85
F0.73
sS'2012-04-12'
p86
F0.73
sS'2012-04-13'
p87
F0.65
sS'2012-04-14'
p88
F0.81
sS'2012-04-15'
p89
F0.83
sS'2012-04-16'
p90
F0.72
sS'2012-04-17'
p91
F0.7
sS'2012-04-18'
p92
F0.69
sS'2012-04-19'
p93
F0.66
sS'2012-09-10'
p94
F0.9
sS'2009-10-30'
p95
F0.85
sS'2011-06-30'
p96
F0.91
sS'2006-07-09'
p97
F0.85
sS'2006-07-08'
p98
F0.79
sS'2011-10-03'
p99
F0.83
sS'2011-10-02'
p100
F0.79
sS'2011-10-05'
p101
F0.81
sS'2011-10-04'
p102
F0.78
sS'2011-10-07'
p103
F0.87
sS'2011-10-06'
p104
F0.9
sS'2006-07-01'
p105
F0.8
sS'2011-10-08'
p106
F0.97
sS'2006-07-03'
p107
F0.82
sS'2006-07-02'
p108
F0.79
sS'2006-07-05'
p109
F0.74
sS'2006-07-04'
p110
F0.8
sS'2006-07-07'
p111
F0.9
sS'2006-07-06'
p112
F0.8
sS'2011-02-09'
p113
F0.96
sS'2015-06-24'
p114
F0.81
sS'2013-10-29'
p115
F0.85
sS'2011-03-29'
p116
F0.78
sS'2015-06-25'
p117
F0.93
sS'2013-10-25'
p118
F0.76
sS'2013-10-24'
p119
F0.79
sS'2013-10-27'
p120
F0.87
sS'2011-03-28'
p121
F0.7
sS'2013-10-21'
p122
F0.87
sS'2013-10-20'
p123
F0.84
sS'2013-10-23'
p124
F0.78
sS'2013-10-22'
p125
F0.94
sS'2006-04-22'
p126
F0.79
sS'2006-04-23'
p127
F0.72
sS'2006-04-20'
p128
F0.65
sS'2006-04-21'
p129
F0.78
sS'2006-04-26'
p130
F0.77
sS'2006-04-27'
p131
F0.75
sS'2006-04-24'
p132
F0.74
sS'2006-04-25'
p133
F0.85
sS'2006-04-28'
p134
F0.74
sS'2006-04-29'
p135
F0.7
sS'2012-07-19'
p136
F0.84
sS'2012-07-18'
p137
F0.86
sS'2015-02-26'
p138
F0.74
sS'2011-03-23'
p139
F0.81
sS'2011-03-22'
p140
F0.7
sS'2010-09-08'
p141
F0.88
sS'2010-09-09'
p142
F0.93
sS'2012-05-30'
p143
F0.87
sS'2010-09-02'
p144
F0.86
sS'2010-09-03'
p145
F0.97
sS'2010-09-01'
p146
F0.97
sS'2010-09-06'
p147
F0.86
sS'2010-09-07'
p148
F0.9
sS'2010-09-04'
p149
I1
sS'2010-09-05'
p150
F0.97
sS'2009-06-27'
p151
F0.84
sS'2009-06-26'
p152
F0.9
sS'2009-06-25'
p153
F0.91
sS'2009-06-24'
p154
F0.79
sS'2009-06-23'
p155
F0.92
sS'2008-06-09'
p156
F0.77
sS'2009-06-21'
p157
F0.99
sS'2009-06-20'
p158
F0.93
sS'2008-06-04'
p159
F0.93
sS'2008-06-05'
p160
F0.84
sS'2008-06-06'
p161
F0.75
sS'2008-06-07'
p162
F0.94
sS'2008-06-01'
p163
F0.96
sS'2008-06-02'
p164
F0.84
sS'2008-06-03'
p165
F0.9
sS'2015-05-03'
p166
F0.71
sS'2012-11-16'
p167
F0.83
sS'2012-02-01'
p168
F0.84
sS'2012-06-20'
p169
F0.97
sS'2015-05-07'
p170
F0.65
sS'2015-05-06'
p171
F0.68
sS'2015-05-05'
p172
F0.69
sS'2012-11-17'
p173
F0.79
sS'2013-04-17'
p174
F0.6
sS'2015-05-08'
p175
F0.6
sS'2014-04-16'
p176
F0.73
sS'2014-04-17'
p177
F0.73
sS'2014-04-14'
p178
F0.65
sS'2012-11-15'
p179
F0.82
sS'2014-04-12'
p180
F0.66
sS'2014-04-13'
p181
F0.69
sS'2014-04-10'
p182
F0.61
sS'2014-04-11'
p183
F0.68
sS'2015-01-10'
p184
F0.84
sS'2007-01-28'
p185
F0.79
sS'2015-01-12'
p186
F0.88
sS'2015-01-13'
p187
F0.88
sS'2015-01-14'
p188
F0.89
sS'2015-01-15'
p189
F0.83
sS'2014-04-18'
p190
F0.65
sS'2007-01-29'
p191
F0.83
sS'2008-05-12'
p192
F0.7
sS'2008-05-13'
p193
F0.81
sS'2008-05-10'
p194
F0.47
sS'2008-05-11'
p195
F0.53
sS'2008-05-16'
p196
F0.55
sS'2008-05-17'
p197
F0.63
sS'2008-05-14'
p198
F0.64
sS'2008-05-15'
p199
F0.53
sS'2008-05-18'
p200
F0.66
sS'2008-05-19'
p201
F0.67
sS'2013-06-30'
p202
F0.89
sS'2007-01-24'
p203
F0.83
sS'2009-11-18'
p204
F0.81
sS'2009-11-19'
p205
F0.81
sS'2012-11-29'
p206
F0.68
sS'2006-11-07'
p207
F0.82
sS'2009-11-12'
p208
F0.87
sS'2009-11-13'
p209
F0.81
sS'2009-11-10'
p210
F0.77
sS'2009-11-11'
p211
F0.85
sS'2009-11-16'
p212
F0.88
sS'2009-07-08'
p213
F0.66
sS'2009-11-14'
p214
F0.76
sS'2009-11-15'
p215
F0.83
sS'2007-01-27'
p216
F0.92
sS'2006-11-02'
p217
F0.79
sS'2006-11-03'
p218
F0.88
sS'2015-11-28'
p219
F0.9
sS'2012-11-18'
p220
F0.82
sS'2014-10-09'
p221
F0.9
sS'2015-11-24'
p222
F0.93
sS'2015-11-25'
p223
F0.89
sS'2015-11-26'
p224
F0.86
sS'2006-11-01'
p225
F0.86
sS'2015-11-20'
p226
F0.81
sS'2015-11-21'
p227
F0.87
sS'2015-11-22'
p228
F0.87
sS'2015-11-23'
p229
F0.86
sS'2013-05-30'
p230
I1
sS'2015-08-12'
p231
F0.75
sS'2009-04-30'
p232
F0.77
sS'2007-06-30'
p233
F0.9
sS'2015-08-16'
p234
F0.91
sS'2015-06-05'
p235
F0.79
sS'2013-07-15'
p236
F0.92
sS'2015-08-14'
p237
F0.74
sS'2013-01-30'
p238
F0.77
sS'2012-09-08'
p239
F0.9
sS'2015-08-18'
p240
F0.92
sS'2014-03-08'
p241
F0.86
sS'2013-01-07'
p242
F0.92
sS'2012-09-09'
p243
F0.84
sS'2014-03-04'
p244
F0.87
sS'2014-03-05'
p245
F0.84
sS'2014-03-06'
p246
F0.82
sS'2013-07-13'
p247
F0.9
sS'2014-03-01'
p248
F0.84
sS'2014-03-02'
p249
F0.84
sS'2014-03-03'
p250
F0.8
sS'2015-10-19'
p251
I1
sS'2015-02-23'
p252
F0.78
sS'2015-02-24'
p253
F0.82
sS'2015-02-25'
p254
F0.83
sS'2010-01-02'
p255
F0.93
sS'2010-01-03'
p256
F0.81
sS'2010-01-01'
p257
F0.93
sS'2010-01-06'
p258
F0.88
sS'2010-01-07'
p259
F0.9
sS'2010-01-04'
p260
F0.84
sS'2010-01-05'
p261
F0.79
sS'2010-01-08'
p262
F0.87
sS'2010-01-09'
p263
F0.88
sS'2013-07-19'
p264
F0.84
sS'2015-02-27'
p265
F0.88
sS'2013-09-19'
p266
I1
sS'2012-09-03'
p267
F0.85
sS'2012-09-04'
p268
I1
sS'2012-09-05'
p269
F0.85
sS'2013-04-08'
p270
F0.77
sS'2012-02-06'
p271
F0.87
sS'2010-05-19'
p272
F0.67
sS'2010-05-18'
p273
F0.73
sS'2013-09-13'
p274
I1
sS'2010-05-15'
p275
F0.85
sS'2010-05-14'
p276
F0.73
sS'2010-05-17'
p277
F0.72
sS'2010-05-16'
p278
F0.9
sS'2010-05-11'
p279
F0.45
sS'2010-05-10'
p280
F0.47
sS'2010-05-13'
p281
F0.59
sS'2010-05-12'
p282
F0.51
sS'2014-07-17'
p283
F0.79
sS'2014-07-16'
p284
F0.93
sS'2013-11-28'
p285
F0.86
sS'2013-04-09'
p286
F0.54
sS'2013-11-29'
p287
F0.85
sS'2014-07-13'
p288
F0.81
sS'2012-01-26'
p289
F0.69
sS'2014-07-12'
p290
F0.84
sS'2014-07-11'
p291
F0.87
sS'2014-07-10'
p292
F0.9
sS'2014-08-30'
p293
F0.93
sS'2013-11-24'
p294
F0.8
sS'2013-11-25'
p295
F0.87
sS'2010-04-26'
p296
F0.58
sS'2014-09-05'
p297
F0.97
sS'2012-04-07'
p298
F0.9
sS'2012-04-06'
p299
F0.6
sS'2012-04-05'
p300
F0.57
sS'2010-04-28'
p301
F0.57
sS'2012-04-03'
p302
F0.48
sS'2012-04-02'
p303
F0.46
sS'2012-04-01'
p304
F0.77
sS'2012-04-09'
p305
F0.58
sS'2012-04-08'
p306
F0.72
sS'2012-03-12'
p307
F0.85
sS'2015-09-30'
p308
F0.82
sS'2011-10-27'
p309
F0.9
sS'2011-10-30'
p310
F0.81
sS'2006-07-30'
p311
F0.76
sS'2012-03-15'
p312
F0.78
sS'2015-09-24'
p313
F0.93
sS'2012-07-28'
p314
F0.93
sS'2012-07-29'
p315
F0.85
sS'2013-10-12'
p316
F0.84
sS'2013-10-13'
p317
F0.9
sS'2013-10-14'
p318
F0.79
sS'2012-01-28'
p319
F0.86
sS'2013-10-16'
p320
F0.87
sS'2013-10-17'
p321
F0.97
sS'2012-07-20'
p322
I1
sS'2012-07-21'
p323
F0.93
sS'2012-07-22'
p324
F0.93
sS'2012-01-29'
p325
F0.84
sS'2012-07-24'
p326
I1
sS'2007-09-26'
p327
F0.82
sS'2012-07-26'
p328
F0.84
sS'2012-07-27'
p329
F0.79
sS'2006-04-30'
p330
F0.72
sS'2014-11-09'
p331
F0.86
sS'2007-09-27'
p332
F0.84
sS'2012-01-27'
p333
F0.81
sS'2014-11-03'
p334
F0.9
sS'2014-11-02'
p335
F0.84
sS'2014-11-01'
p336
F0.82
sS'2015-09-22'
p337
F0.74
sS'2014-11-07'
p338
F0.84
sS'2012-01-24'
p339
F0.85
sS'2014-11-05'
p340
F0.87
sS'2014-11-04'
p341
F0.89
sS'2011-08-26'
p342
F0.97
sS'2012-01-25'
p343
F0.84
sS'2011-08-27'
p344
F0.97
sS'2012-01-22'
p345
F0.7
sS'2011-08-24'
p346
F0.84
sS'2012-01-23'
p347
F0.76
sS'2010-09-19'
p348
F0.96
sS'2010-09-18'
p349
F0.91
sS'2011-08-25'
p350
F0.97
sS'2012-01-20'
p351
F0.82
sS'2007-11-30'
p352
F0.75
sS'2012-10-03'
p353
F0.84
sS'2010-09-11'
p354
F0.92
sS'2010-09-10'
p355
F0.89
sS'2010-09-13'
p356
F0.87
sS'2010-09-12'
p357
F0.96
sS'2010-09-15'
p358
F0.74
sS'2010-09-14'
p359
F0.82
sS'2010-09-17'
p360
F0.9
sS'2010-09-16'
p361
F0.85
sS'2008-06-13'
p362
F0.79
sS'2008-06-12'
p363
F0.79
sS'2008-06-11'
p364
F0.83
sS'2008-06-10'
p365
I1
sS'2008-06-17'
p366
F0.73
sS'2008-06-16'
p367
F0.69
sS'2008-06-15'
p368
F0.78
sS'2008-06-14'
p369
F0.86
sS'2007-02-07'
p370
F0.85
sS'2008-06-19'
p371
F0.87
sS'2008-06-18'
p372
F0.69
sS'2007-09-29'
p373
F0.85
sS'2008-01-16'
p374
F0.85
sS'2008-01-17'
p375
F0.79
sS'2008-01-14'
p376
F0.85
sS'2008-01-15'
p377
F0.86
sS'2008-01-12'
p378
F0.84
sS'2008-01-13'
p379
F0.86
sS'2008-01-10'
p380
F0.87
sS'2008-01-11'
p381
F0.85
sS'2012-10-05'
p382
F0.77
sS'2008-01-18'
p383
F0.85
sS'2008-01-19'
p384
F0.85
sS'2014-04-05'
p385
F0.67
sS'2014-04-04'
p386
F0.76
sS'2014-04-07'
p387
F0.54
sS'2014-04-06'
p388
F0.84
sS'2014-04-01'
p389
F0.83
sS'2014-04-03'
p390
F0.76
sS'2014-04-02'
p391
F0.83
sS'2015-01-07'
p392
F0.79
sS'2015-01-06'
p393
F0.88
sS'2015-01-05'
p394
F0.88
sS'2015-01-04'
p395
F0.88
sS'2014-04-09'
p396
F0.61
sS'2014-04-08'
p397
F0.6
sS'2015-01-01'
p398
F0.96
sS'2008-05-01'
p399
F0.72
sS'2013-06-01'
p400
F0.79
sS'2008-05-03'
p401
F0.59
sS'2008-05-02'
p402
F0.59
sS'2008-05-05'
p403
F0.5
sS'2008-05-04'
p404
F0.48
sS'2008-05-07'
p405
F0.64
sS'2008-05-06'
p406
F0.64
sS'2008-05-09'
p407
F0.41
sS'2008-05-08'
p408
F0.59
sS'2009-11-09'
p409
F0.84
sS'2009-11-08'
p410
F0.9
sS'2015-08-28'
p411
F0.84
sS'2008-09-18'
p412
F0.79
sS'2008-09-19'
p413
F0.82
sS'2008-09-16'
p414
F0.82
sS'2008-09-17'
p415
F0.79
sS'2009-11-03'
p416
F0.92
sS'2008-09-15'
p417
F0.93
sS'2009-11-05'
p418
F0.89
sS'2008-09-13'
p419
F0.77
sS'2009-11-07'
p420
F0.92
sS'2008-09-11'
p421
F0.95
sS'2006-11-20'
p422
F0.92
sS'2014-08-06'
p423
F0.9
sS'2015-11-30'
p424
F0.81
sS'2006-11-21'
p425
F0.81
sS'2015-07-15'
p426
F0.85
sS'2015-07-13'
p427
F0.73
sS'2013-05-29'
p428
F0.97
sS'2013-05-28'
p429
I1
sS'2013-05-27'
p430
F0.89
sS'2013-05-26'
p431
F0.79
sS'2013-05-25'
p432
F0.91
sS'2013-05-24'
p433
F0.63
sS'2013-05-23'
p434
F0.79
sS'2013-05-22'
p435
F0.56
sS'2006-11-22'
p436
F0.75
sS'2013-05-20'
p437
F0.46
sS'2009-04-29'
p438
F0.71
sS'2009-04-28'
p439
F0.67
sS'2007-06-29'
p440
F0.87
sS'2007-06-28'
p441
F0.67
sS'2009-04-21'
p442
F0.73
sS'2009-04-20'
p443
F0.61
sS'2009-04-23'
p444
F0.67
sS'2007-06-26'
p445
F0.73
sS'2007-06-21'
p446
F0.79
sS'2009-04-24'
p447
F0.7
sS'2007-06-23'
p448
F0.8
sS'2007-06-22'
p449
F0.71
sS'2013-01-29'
p450
F0.84
sS'2013-01-28'
p451
F0.85
sS'2012-03-18'
p452
F0.9
sS'2013-01-23'
p453
F0.83
sS'2013-01-22'
p454
F0.83
sS'2013-01-21'
p455
F0.86
sS'2013-01-20'
p456
F0.89
sS'2013-01-27'
p457
F0.82
sS'2013-01-26'
p458
F0.83
sS'2013-01-25'
p459
F0.86
sS'2013-01-24'
p460
F0.85
sS'2006-11-24'
p461
F0.86
sS'2014-03-13'
p462
F0.79
sS'2014-03-12'
p463
F0.81
sS'2014-03-11'
p464
F0.88
sS'2014-03-10'
p465
F0.86
sS'2014-03-17'
p466
F0.72
sS'2014-03-16'
p467
F0.78
sS'2014-03-15'
p468
F0.81
sS'2014-03-14'
p469
F0.88
sS'2014-03-19'
p470
F0.71
sS'2014-03-18'
p471
F0.83
sS'2012-03-11'
p472
F0.81
sS'2013-03-23'
p473
F0.8
sS'2012-03-10'
p474
F0.79
sS'2006-11-25'
p475
F0.85
sS'2012-07-30'
p476
F0.71
sS'2012-03-13'
p477
F0.81
sS'2010-01-11'
p478
F0.9
sS'2010-01-10'
p479
F0.9
sS'2010-01-13'
p480
F0.73
sS'2010-01-12'
p481
F0.82
sS'2010-01-15'
p482
F0.84
sS'2010-01-14'
p483
F0.78
sS'2010-01-17'
p484
F0.89
sS'2010-01-16'
p485
F0.86
sS'2009-05-03'
p486
F0.78
sS'2010-01-18'
p487
F0.91
sS'2012-03-14'
p488
F0.9
sS'2006-11-26'
p489
F0.75
sS'2012-03-16'
p490
F0.84
sS'2015-10-30'
p491
F0.93
sS'2010-05-20'
p492
F0.64
sS'2010-05-21'
p493
F0.6
sS'2010-05-22'
p494
F0.6
sS'2010-05-23'
p495
F0.58
sS'2006-11-27'
p496
F0.85
sS'2010-05-25'
p497
F0.74
sS'2010-05-26'
p498
F0.77
sS'2010-05-27'
p499
F0.68
sS'2010-05-28'
p500
F0.57
sS'2010-05-29'
p501
F0.69
sS'2008-10-30'
p502
F0.76
sS'2015-10-09'
p503
F0.81
sS'2014-08-23'
p504
F0.81
sS'2014-08-22'
p505
F0.78
sS'2014-08-21'
p506
F0.93
sS'2014-08-20'
p507
F0.84
sS'2012-11-27'
p508
F0.85
sS'2014-08-26'
p509
F0.84
sS'2014-08-25'
p510
F0.87
sS'2014-08-24'
p511
F0.9
sS'2014-08-29'
p512
F0.84
sS'2014-08-28'
p513
F0.69
sS'2010-04-05'
p514
F0.62
sS'2015-02-17'
p515
F0.64
sS'2011-04-28'
p516
F0.7
sS'2011-04-29'
p517
F0.6
sS'2011-04-22'
p518
F0.73
sS'2011-04-23'
p519
F0.9
sS'2011-04-20'
p520
F0.72
sS'2011-04-21'
p521
F0.66
sS'2011-04-26'
p522
F0.68
sS'2011-04-27'
p523
F0.61
sS'2011-04-24'
p524
F0.78
sS'2011-04-25'
p525
F0.69
sS'2014-01-26'
p526
F0.88
sS'2011-11-29'
p527
F0.66
sS'2015-09-29'
p528
F0.87
sS'2015-09-28'
p529
F0.81
sS'2015-09-25'
p530
F0.89
sS'2010-09-28'
p531
F0.98
sS'2015-09-27'
p532
F0.86
sS'2015-09-26'
p533
F0.81
sS'2015-09-21'
p534
F0.83
sS'2015-09-20'
p535
F0.83
sS'2015-09-23'
p536
F0.87
sS'2010-09-29'
p537
F0.93
sS'2006-07-23'
p538
F0.94
sS'2006-07-22'
p539
F0.87
sS'2006-07-21'
p540
F0.97
sS'2006-07-20'
p541
F0.95
sS'2006-07-27'
p542
F0.77
sS'2006-07-26'
p543
F0.81
sS'2006-07-25'
p544
F0.75
sS'2006-07-24'
p545
F0.88
sS'2006-07-29'
p546
F0.82
sS'2006-07-28'
p547
F0.77
sS'2011-08-28'
p548
F0.92
sS'2011-08-29'
p549
F0.84
sS'2008-02-28'
p550
F0.79
sS'2008-02-29'
p551
F0.85
sS'2008-02-26'
p552
F0.82
sS'2008-02-27'
p553
F0.77
sS'2008-02-24'
p554
F0.81
sS'2008-02-25'
p555
F0.78
sS'2008-02-22'
p556
F0.77
sS'2008-02-23'
p557
F0.73
sS'2008-02-20'
p558
F0.83
sS'2008-02-21'
p559
F0.79
sS'2013-10-07'
p560
F0.9
sS'2013-10-06'
p561
F0.97
sS'2013-10-05'
p562
F0.89
sS'2013-10-04'
p563
F0.93
sS'2012-11-03'
p564
F0.86
sS'2013-10-02'
p565
F0.84
sS'2013-10-01'
p566
F0.84
sS'2010-09-20'
p567
F0.93
sS'2013-10-09'
p568
F0.87
sS'2010-09-21'
p569
F0.85
sS'2006-04-04'
p570
F0.64
sS'2006-04-05'
p571
F0.67
sS'2006-04-06'
p572
F0.72
sS'2006-04-07'
p573
F0.73
sS'2006-04-01'
p574
F0.75
sS'2006-04-02'
p575
F0.77
sS'2006-04-03'
p576
F0.73
sS'2006-04-08'
p577
F0.69
sS'2006-04-09'
p578
F0.63
sS'2015-03-23'
p579
F0.83
sS'2015-03-22'
p580
F0.74
sS'2015-03-21'
p581
F0.84
sS'2007-11-25'
p582
F0.84
sS'2007-11-24'
p583
F0.84
sS'2007-11-27'
p584
F0.83
sS'2007-11-26'
p585
F0.86
sS'2007-11-21'
p586
F0.84
sS'2007-11-20'
p587
F0.8
sS'2007-11-23'
p588
F0.84
sS'2007-11-22'
p589
F0.87
sS'2010-09-24'
p590
F0.9
sS'2010-09-25'
p591
F0.88
sS'2010-09-26'
p592
F0.97
sS'2010-09-27'
p593
F0.98
sS'2007-11-29'
p594
F0.8
sS'2007-11-28'
p595
F0.87
sS'2010-09-22'
p596
F0.9
sS'2010-09-23'
p597
F0.93
sS'2015-03-24'
p598
F0.88
sS'2008-01-05'
p599
F0.85
sS'2008-01-04'
p600
F0.63
sS'2008-01-07'
p601
F0.87
sS'2008-01-06'
p602
F0.88
sS'2008-01-01'
p603
F0.77
sS'2015-06-07'
p604
F0.79
sS'2008-01-03'
p605
F0.83
sS'2008-01-02'
p606
F0.79
sS'2011-10-23'
p607
F0.77
sS'2011-10-22'
p608
F0.87
sS'2011-10-21'
p609
F0.88
sS'2011-10-20'
p610
F0.78
sS'2008-01-09'
p611
F0.98
sS'2008-01-08'
p612
F0.9
sS'2011-10-25'
p613
F0.71
sS'2011-10-24'
p614
F0.75
sS'2007-01-08'
p615
F0.86
sS'2007-01-09'
p616
F0.89
sS'2007-01-02'
p617
F0.91
sS'2007-01-03'
p618
F0.85
sS'2007-01-01'
p619
F0.73
sS'2007-01-06'
p620
F0.87
sS'2007-01-07'
p621
F0.96
sS'2007-01-04'
p622
F0.93
sS'2007-01-05'
p623
F0.93
sS'2013-06-17'
p624
F0.79
sS'2013-06-16'
p625
F0.76
sS'2013-06-15'
p626
F0.84
sS'2013-06-14'
p627
F0.77
sS'2008-05-30'
p628
F0.79
sS'2013-06-12'
p629
F0.83
sS'2013-06-11'
p630
F0.84
sS'2013-06-10'
p631
F0.85
sS'2015-02-06'
p632
F0.87
sS'2015-02-07'
p633
F0.87
sS'2015-02-04'
p634
F0.92
sS'2015-02-05'
p635
F0.9
sS'2015-02-02'
p636
F0.84
sS'2011-10-29'
p637
F0.71
sS'2013-06-19'
p638
F0.74
sS'2013-06-18'
p639
F0.65
sS'2012-09-26'
p640
F0.89
sS'2012-09-27'
p641
F0.86
sS'2012-09-24'
p642
F0.82
sS'2011-10-28'
p643
F0.87
sS'2008-09-09'
p644
F0.83
sS'2008-09-08'
p645
F0.83
sS'2012-09-20'
p646
F0.89
sS'2012-09-21'
p647
F0.87
sS'2008-09-05'
p648
F0.84
sS'2008-09-04'
p649
F0.82
sS'2008-09-07'
p650
F0.79
sS'2008-09-06'
p651
F0.86
sS'2009-11-30'
p652
F0.81
sS'2014-07-30'
p653
F0.84
sS'2008-09-03'
p654
F0.83
sS'2008-09-02'
p655
F0.98
sS'2015-06-04'
p656
F0.83
sS'2015-04-18'
p657
F0.64
sS'2007-09-02'
p658
F0.85
sS'2007-09-03'
p659
F0.82
sS'2007-09-01'
p660
F0.97
sS'2007-09-06'
p661
F0.76
sS'2007-09-07'
p662
F0.88
sS'2007-09-04'
p663
F0.9
sS'2007-09-05'
p664
F0.79
sS'2007-09-08'
p665
F0.93
sS'2007-09-09'
p666
F0.97
sS'2015-06-08'
p667
F0.64
sS'2007-02-21'
p668
F0.76
sS'2007-02-20'
p669
F0.89
sS'2007-02-23'
p670
F0.83
sS'2007-02-22'
p671
F0.79
sS'2007-02-25'
p672
F0.91
sS'2007-02-24'
p673
F0.86
sS'2007-02-27'
p674
F0.76
sS'2007-02-26'
p675
F0.84
sS'2007-02-28'
p676
F0.76
sS'2011-10-26'
p677
F0.77
sS'2015-09-19'
p678
F0.85
sS'2007-06-10'
p679
F0.69
sS'2007-06-11'
p680
F0.69
sS'2007-06-12'
p681
F0.78
sS'2007-06-13'
p682
F0.71
sS'2009-04-18'
p683
F0.5
sS'2009-04-19'
p684
F0.61
sS'2007-06-16'
p685
F0.68
sS'2007-06-17'
p686
F0.93
sS'2009-04-14'
p687
F0.54
sS'2009-04-15'
p688
F0.79
sS'2009-04-16'
p689
F0.65
sS'2009-04-17'
p690
F0.55
sS'2009-04-10'
p691
F0.58
sS'2009-04-11'
p692
F0.58
sS'2009-04-12'
p693
F0.57
sS'2009-04-13'
p694
F0.62
sS'2012-06-01'
p695
F0.74
sS'2015-05-28'
p696
F0.8
sS'2014-04-30'
p697
F0.54
sS'2014-10-28'
p698
F0.87
sS'2014-10-29'
p699
F0.91
sS'2014-10-26'
p700
F0.79
sS'2014-10-27'
p701
F0.89
sS'2010-01-24'
p702
F0.81
sS'2010-01-25'
p703
F0.83
sS'2010-01-26'
p704
F0.9
sS'2010-01-27'
p705
F0.8
sS'2010-01-20'
p706
F0.89
sS'2010-01-21'
p707
F0.88
sS'2010-01-22'
p708
F0.81
sS'2010-01-23'
p709
F0.81
sS'2010-01-28'
p710
F0.8
sS'2010-01-29'
p711
F0.88
sS'2009-05-25'
p712
F0.7
sS'2009-05-22'
p713
F0.68
sS'2009-05-23'
p714
F0.69
sS'2008-08-17'
p715
F0.74
sS'2008-08-16'
p716
F0.97
sS'2010-05-30'
p717
F0.69
sS'2008-10-21'
p718
F0.83
sS'2008-10-20'
p719
F0.85
sS'2008-10-23'
p720
F0.81
sS'2008-10-22'
p721
F0.8
sS'2008-10-25'
p722
F0.85
sS'2008-10-24'
p723
F0.76
sS'2008-10-27'
p724
F0.78
sS'2008-10-26'
p725
F0.8
sS'2008-10-29'
p726
F0.75
sS'2008-10-28'
p727
F0.73
sS'2015-02-08'
p728
F0.88
sS'2006-03-18'
p729
F0.69
sS'2006-03-19'
p730
F0.78
sS'2006-03-16'
p731
F0.73
sS'2006-03-17'
p732
F0.77
sS'2006-03-14'
p733
F0.67
sS'2006-03-15'
p734
F0.79
sS'2006-03-12'
p735
F0.77
sS'2006-03-13'
p736
F0.64
sS'2006-03-10'
p737
F0.73
sS'2006-03-11'
p738
F0.73
sS'2008-03-14'
p739
F0.79
sS'2007-07-12'
p740
F0.84
sS'2007-07-11'
p741
F0.72
sS'2008-03-17'
p742
F0.66
sS'2008-03-10'
p743
F0.8
sS'2008-03-11'
p744
F0.78
sS'2008-03-12'
p745
F0.84
sS'2007-07-14'
p746
F0.63
sS'2014-07-25'
p747
F0.69
sS'2011-04-30'
p748
F0.74
sS'2011-01-16'
p749
F0.96
sS'2015-02-03'
p750
F0.85
sS'2015-02-01'
p751
F0.86
sS'2015-09-10'
p752
F0.93
sS'2015-09-11'
p753
F0.87
sS'2015-06-06'
p754
I1
sS'2012-09-25'
p755
F0.9
sS'2015-09-14'
p756
F0.93
sS'2015-09-15'
p757
F0.94
sS'2015-09-16'
p758
F0.93
sS'2015-09-17'
p759
F0.93
sS'2015-09-18'
p760
F0.97
sS'2012-09-22'
p761
F0.93
sS'2012-09-23'
p762
F0.85
sS'2011-08-30'
p763
F0.91
sS'2009-08-30'
p764
F0.82
sS'2010-11-13'
p765
F0.8
sS'2010-11-14'
p766
F0.81
sS'2010-11-15'
p767
F0.86
sS'2006-04-19'
p768
F0.9
sS'2006-04-18'
p769
F0.72
sS'2006-04-13'
p770
F0.74
sS'2006-04-12'
p771
F0.87
sS'2006-04-11'
p772
F0.79
sS'2006-04-10'
p773
F0.81
sS'2006-04-17'
p774
F0.63
sS'2006-04-16'
p775
F0.71
sS'2006-04-15'
p776
F0.68
sS'2006-04-14'
p777
F0.77
sS'2010-11-18'
p778
F0.81
sS'2006-02-27'
p779
F0.76
sS'2012-09-28'
p780
I1
sS'2010-11-19'
p781
F0.82
sS'2012-09-29'
p782
F0.97
sS'2007-11-18'
p783
F0.84
sS'2007-11-19'
p784
F0.82
sS'2007-11-10'
p785
F0.87
sS'2007-11-11'
p786
F0.77
sS'2007-11-12'
p787
F0.83
sS'2007-11-13'
p788
F0.84
sS'2007-11-14'
p789
F0.85
sS'2007-11-15'
p790
F0.89
sS'2007-11-16'
p791
F0.81
sS'2007-11-17'
p792
F0.83
sS'2010-04-01'
p793
F0.7
sS'2010-09-30'
p794
F0.93
sS'2010-04-03'
p795
F0.78
sS'2008-01-30'
p796
F0.68
sS'2006-02-28'
p797
F0.83
sS'2011-08-22'
p798
F0.98
sS'2010-04-04'
p799
F0.71
sS'2015-06-11'
p800
F0.93
sS'2015-06-10'
p801
F0.81
sS'2012-05-28'
p802
F0.86
sS'2012-05-29'
p803
F0.85
sS'2015-06-15'
p804
F0.93
sS'2010-04-07'
p805
F0.75
sS'2015-06-17'
p806
F0.84
sS'2015-06-16'
p807
F0.87
sS'2012-05-22'
p808
F0.64
sS'2012-05-23'
p809
F0.69
sS'2012-05-20'
p810
F0.65
sS'2010-04-06'
p811
F0.65
sS'2012-05-26'
p812
F0.9
sS'2012-05-27'
p813
F0.92
sS'2012-05-24'
p814
F0.69
sS'2012-05-25'
p815
F0.65
sS'2007-01-19'
p816
F0.86
sS'2007-01-18'
p817
F0.85
sS'2014-04-29'
p818
F0.56
sS'2014-04-28'
p819
F0.56
sS'2007-01-11'
p820
F0.89
sS'2007-01-10'
p821
F0.96
sS'2007-01-13'
p822
F0.86
sS'2007-01-12'
p823
F0.88
sS'2007-01-15'
p824
F0.76
sS'2007-01-14'
p825
F0.89
sS'2007-01-17'
p826
F0.84
sS'2007-01-16'
p827
F0.97
sS'2008-05-29'
p828
F0.83
sS'2008-05-28'
p829
F0.72
sS'2008-05-23'
p830
F0.51
sS'2008-05-22'
p831
F0.6
sS'2008-05-21'
p832
F0.72
sS'2008-05-20'
p833
F0.75
sS'2008-05-27'
p834
F0.75
sS'2008-05-26'
p835
F0.87
sS'2008-05-25'
p836
F0.6
sS'2008-05-24'
p837
F0.58
sS'2007-05-06'
p838
F0.7
sS'2007-05-07'
p839
F0.59
sS'2007-05-04'
p840
F0.62
sS'2007-05-05'
p841
F0.78
sS'2007-05-02'
p842
F0.67
sS'2007-05-03'
p843
F0.79
sS'2007-05-01'
p844
F0.68
sS'2015-02-15'
p845
F0.77
sS'2015-02-14'
p846
F0.85
sS'2011-08-20'
p847
F0.81
sS'2015-02-16'
p848
F0.62
sS'2015-02-11'
p849
F0.87
sS'2015-02-10'
p850
F0.96
sS'2007-05-08'
p851
F0.48
sS'2007-05-09'
p852
F0.65
sS'2008-09-30'
p853
F0.9
sS'2009-11-22'
p854
F0.86
sS'2009-11-21'
p855
F0.88
sS'2009-11-20'
p856
F0.87
sS'2009-11-27'
p857
F0.83
sS'2009-11-26'
p858
F0.83
sS'2009-11-25'
p859
F0.87
sS'2009-11-24'
p860
F0.86
sS'2014-07-08'
p861
F0.84
sS'2014-07-09'
p862
F0.82
sS'2009-11-29'
p863
F0.88
sS'2009-11-28'
p864
F0.8
sS'2012-10-08'
p865
F0.83
sS'2011-10-01'
p866
F0.93
sS'2011-08-21'
p867
F0.95
sS'2007-09-11'
p868
F0.79
sS'2007-09-10'
p869
F0.88
sS'2007-09-13'
p870
F0.9
sS'2007-09-12'
p871
F0.76
sS'2007-09-15'
p872
F0.81
sS'2007-09-14'
p873
F0.79
sS'2007-09-17'
p874
F0.74
sS'2007-09-16'
p875
F0.81
sS'2007-09-19'
p876
F0.82
sS'2007-09-18'
p877
F0.69
sS'2012-10-09'
p878
F0.9
sS'2015-04-30'
p879
F0.68
sS'2007-02-14'
p880
F0.82
sS'2007-02-15'
p881
F0.82
sS'2007-02-16'
p882
F0.86
sS'2007-02-17'
p883
F0.91
sS'2007-02-10'
p884
F0.81
sS'2007-02-11'
p885
F0.88
sS'2007-02-12'
p886
F0.66
sS'2007-02-13'
p887
F0.86
sS'2007-02-18'
p888
F0.88
sS'2007-02-19'
p889
F0.82
sS'2011-10-09'
p890
F0.91
sS'2007-06-07'
p891
F0.97
sS'2007-06-06'
p892
F0.6
sS'2007-06-05'
p893
F0.77
sS'2007-06-04'
p894
F0.69
sS'2007-06-03'
p895
F0.72
sS'2007-06-02'
p896
F0.72
sS'2007-06-01'
p897
F0.65
sS'2009-04-04'
p898
F0.75
sS'2006-08-26'
p899
F0.79
sS'2006-08-27'
p900
F0.8
sS'2006-08-24'
p901
F0.78
sS'2006-08-25'
p902
F0.93
sS'2006-08-22'
p903
F0.97
sS'2006-08-23'
p904
F0.75
sS'2007-06-09'
p905
F0.77
sS'2007-06-08'
p906
F0.74
sS'2014-04-26'
p907
F0.6
sS'2013-05-21'
p908
F0.62
sS'2014-05-24'
p909
F0.84
sS'2014-05-25'
p910
F0.74
sS'2010-06-18'
p911
F0.89
sS'2010-06-19'
p912
F0.86
sS'2011-03-16'
p913
F0.82
sS'2011-03-17'
p914
F0.79
sS'2011-03-14'
p915
F0.93
sS'2011-03-15'
p916
F0.96
sS'2011-03-12'
p917
F0.88
sS'2011-03-13'
p918
F0.94
sS'2011-03-10'
p919
F0.66
sS'2011-03-11'
p920
F0.89
sS'2010-01-30'
p921
F0.83
sS'2011-03-18'
p922
F0.81
sS'2011-03-19'
p923
F0.72
sS'2012-11-19'
p924
F0.84
sS'2012-10-02'
p925
F0.92
sS'2010-06-10'
p926
I1
sS'2010-06-11'
p927
F0.89
sS'2015-03-26'
p928
F0.72
sS'2015-05-18'
p929
F0.78
sS'2011-06-29'
p930
F0.92
sS'2010-04-18'
p931
F0.77
sS'2010-04-19'
p932
F0.76
sS'2010-04-12'
p933
F0.66
sS'2010-04-13'
p934
F0.72
sS'2010-04-10'
p935
F0.74
sS'2010-04-11'
p936
F0.71
sS'2010-04-16'
p937
F0.8
sS'2010-04-17'
p938
F0.66
sS'2010-04-14'
p939
F0.75
sS'2010-04-15'
p940
F0.61
sS'2008-10-14'
p941
F0.74
sS'2008-10-15'
p942
F0.77
sS'2008-10-16'
p943
F0.77
sS'2008-10-17'
p944
F0.74
sS'2008-10-10'
p945
F0.96
sS'2008-10-11'
p946
F0.86
sS'2008-10-12'
p947
F0.85
sS'2008-10-13'
p948
F0.83
sS'2008-10-18'
p949
F0.84
sS'2008-10-19'
p950
F0.86
sS'2010-03-26'
p951
F0.83
sS'2010-03-27'
p952
F0.84
sS'2010-03-24'
p953
F0.67
sS'2010-03-25'
p954
F0.59
sS'2006-03-09'
p955
F0.63
sS'2006-03-08'
p956
F0.86
sS'2010-03-20'
p957
F0.7
sS'2010-03-21'
p958
F0.74
sS'2006-03-05'
p959
F0.76
sS'2006-03-04'
p960
F0.79
sS'2006-03-07'
p961
F0.75
sS'2006-03-06'
p962
F0.73
sS'2006-03-01'
p963
F0.84
sS'2006-03-03'
p964
F0.8
sS'2006-03-02'
p965
F0.83
sS'2013-10-26'
p966
F0.85
sS'2015-02-19'
p967
F0.88
sS'2012-07-15'
p968
F0.93
sS'2013-10-28'
p969
F0.86
sS'2012-07-14'
p970
F0.93
sS'2012-10-06'
p971
F0.9
sS'2012-07-17'
p972
F0.79
sS'2015-05-02'
p973
F0.77
sS'2012-07-16'
p974
F0.84
sS'2012-07-11'
p975
F0.97
sS'2012-07-10'
p976
F0.93
sS'2011-04-08'
p977
F0.58
sS'2011-04-09'
p978
F0.6
sS'2012-10-07'
p979
F0.84
sS'2011-04-04'
p980
F0.74
sS'2011-04-05'
p981
F0.64
sS'2011-04-06'
p982
F0.74
sS'2011-04-07'
p983
F0.74
sS'2011-04-01'
p984
F0.57
sS'2011-04-02'
p985
F0.66
sS'2011-04-03'
p986
F0.82
sS'2012-10-04'
p987
F0.8
sS'2015-09-07'
p988
I1
sS'2015-09-06'
p989
F0.89
sS'2015-09-05'
p990
F0.9
sS'2015-09-04'
p991
F0.93
sS'2015-09-03'
p992
F0.93
sS'2015-09-02'
p993
F0.93
sS'2015-09-01'
p994
F0.87
sS'2007-06-14'
p995
F0.79
sS'2015-09-09'
p996
F0.9
sS'2007-06-15'
p997
F0.73
sS'2009-08-29'
p998
F0.95
sS'2009-08-28'
p999
F0.98
sS'2009-08-25'
p1000
F0.79
sS'2009-08-24'
p1001
F0.74
sS'2009-08-27'
p1002
F0.79
sS'2009-08-26'
p1003
F0.83
sS'2009-08-21'
p1004
F0.82
sS'2009-08-20'
p1005
F0.81
sS'2009-08-23'
p1006
F0.86
sS'2009-08-22'
p1007
F0.83
sS'2008-02-01'
p1008
F0.69
sS'2008-02-02'
p1009
F0.82
sS'2008-02-03'
p1010
F0.81
sS'2008-02-04'
p1011
F0.84
sS'2008-02-05'
p1012
F0.75
sS'2008-02-06'
p1013
F0.72
sS'2008-02-07'
p1014
F0.85
sS'2008-02-08'
p1015
F0.87
sS'2008-02-09'
p1016
F0.67
sS'2006-11-05'
p1017
F0.85
sS'2011-06-21'
p1018
F0.88
sS'2015-06-02'
p1019
F0.76
sS'2007-11-09'
p1020
F0.9
sS'2007-11-08'
p1021
F0.74
sS'2007-11-07'
p1022
F0.78
sS'2007-11-06'
p1023
F0.93
sS'2007-11-05'
p1024
F0.65
sS'2007-11-04'
p1025
F0.77
sS'2007-11-03'
p1026
F0.9
sS'2007-11-02'
p1027
F0.82
sS'2007-11-01'
p1028
F0.87
sS'2009-05-24'
p1029
F0.88
sS'2012-02-26'
p1030
F0.89
sS'2008-01-29'
p1031
F0.86
sS'2008-01-28'
p1032
F0.79
sS'2008-01-27'
p1033
F0.8
sS'2008-01-26'
p1034
F0.79
sS'2008-01-25'
p1035
F0.71
sS'2008-01-24'
p1036
F0.81
sS'2008-01-23'
p1037
F0.86
sS'2008-01-22'
p1038
F0.87
sS'2008-01-21'
p1039
F0.89
sS'2008-01-20'
p1040
F0.84
sS'2011-08-08'
p1041
F0.93
sS'2011-08-09'
p1042
F0.94
sS'2015-06-26'
p1043
F0.79
sS'2015-06-27'
p1044
F0.84
sS'2015-06-20'
p1045
F0.73
sS'2015-06-21'
p1046
F0.79
sS'2015-06-22'
p1047
F0.76
sS'2015-06-23'
p1048
F0.79
sS'2011-08-01'
p1049
F0.97
sS'2011-08-02'
p1050
F0.93
sS'2011-08-03'
p1051
I1
sS'2011-08-04'
p1052
F0.88
sS'2011-08-05'
p1053
F0.88
sS'2011-08-06'
p1054
F0.89
sS'2011-08-07'
p1055
F0.84
sS'2009-07-02'
p1056
F0.93
sS'2009-07-03'
p1057
F0.93
sS'2009-07-01'
p1058
F0.94
sS'2009-07-06'
p1059
F0.75
sS'2009-07-07'
p1060
F0.7
sS'2006-11-08'
p1061
F0.82
sS'2006-11-09'
p1062
F0.92
sS'2006-11-06'
p1063
F0.85
sS'2007-01-25'
p1064
F0.83
sS'2006-11-04'
p1065
F0.92
sS'2009-07-09'
p1066
F0.9
sS'2007-01-20'
p1067
F0.86
sS'2007-01-21'
p1068
F0.87
sS'2007-01-22'
p1069
F0.8
sS'2007-01-23'
p1070
F0.86
sS'2014-02-22'
p1071
F0.87
sS'2011-06-16'
p1072
F0.93
sS'2011-06-10'
p1073
F0.64
sS'2007-05-15'
p1074
F0.64
sS'2007-05-14'
p1075
F0.66
sS'2007-05-17'
p1076
F0.67
sS'2007-05-16'
p1077
F0.6
sS'2007-05-11'
p1078
F0.7
sS'2007-05-10'
p1079
F0.69
sS'2007-05-13'
p1080
F0.72
sS'2007-05-12'
p1081
F0.71
sS'2015-02-28'
p1082
F0.89
sS'2012-09-01'
p1083
I1
sS'2012-09-02'
p1084
F0.92
sS'2011-06-12'
p1085
F0.75
sS'2007-05-19'
p1086
F0.58
sS'2007-05-18'
p1087
F0.67
sS'2012-09-06'
p1088
F0.87
sS'2012-09-07'
p1089
F0.86
sS'2008-09-27'
p1090
F0.85
sS'2008-09-26'
p1091
F0.83
sS'2008-09-25'
p1092
F0.93
sS'2008-09-24'
p1093
F0.96
sS'2008-09-23'
p1094
F0.9
sS'2008-09-22'
p1095
F0.79
sS'2008-09-21'
p1096
F0.87
sS'2008-09-20'
p1097
F0.88
sS'2013-11-22'
p1098
F0.89
sS'2013-11-23'
p1099
F0.87
sS'2013-11-20'
p1100
F0.87
sS'2013-11-21'
p1101
F0.87
sS'2013-11-26'
p1102
F0.94
sS'2013-11-27'
p1103
F0.88
sS'2008-09-29'
p1104
F0.82
sS'2008-09-28'
p1105
F0.93
sS'2011-06-19'
p1106
F0.97
sS'2011-06-18'
p1107
F0.85
sS'2007-09-24'
p1108
F0.89
sS'2007-09-25'
p1109
I1
sS'2007-02-09'
p1110
F0.85
sS'2007-02-08'
p1111
F0.88
sS'2007-09-20'
p1112
F0.79
sS'2007-09-21'
p1113
F0.79
sS'2007-09-22'
p1114
F0.84
sS'2007-09-23'
p1115
F0.84
sS'2007-02-03'
p1116
F0.95
sS'2007-02-02'
p1117
F0.84
sS'2007-02-01'
p1118
F0.81
sS'2012-10-01'
p1119
F0.9
sS'2007-10-27'
p1120
F0.74
sS'2007-02-06'
p1121
F0.87
sS'2007-02-05'
p1122
F0.89
sS'2007-02-04'
p1123
F0.9
sS'2013-04-29'
p1124
F0.65
sS'2014-06-07'
p1125
F0.97
sS'2014-06-06'
p1126
F0.84
sS'2014-06-05'
p1127
F0.97
sS'2014-06-04'
p1128
I1
sS'2015-03-03'
p1129
F0.82
sS'2009-06-29'
p1130
F0.76
sS'2009-06-28'
p1131
F0.84
sS'2006-08-30'
p1132
F0.77
sS'2010-07-22'
p1133
F0.97
sS'2010-07-23'
p1134
F0.95
sS'2010-07-20'
p1135
I1
sS'2010-07-21'
p1136
F0.9
sS'2010-07-26'
p1137
F0.95
sS'2010-07-27'
p1138
I1
sS'2010-07-24'
p1139
F0.9
sS'2010-07-25'
p1140
F0.86
sS'2010-07-28'
p1141
I1
sS'2010-07-29'
p1142
F0.82
sS'2011-03-05'
p1143
F0.91
sS'2011-03-04'
p1144
F0.86
sS'2011-03-07'
p1145
F0.85
sS'2011-03-06'
p1146
F0.93
sS'2011-03-01'
p1147
F0.89
sS'2011-03-03'
p1148
F0.84
sS'2011-03-02'
p1149
F0.9
sS'2011-03-09'
p1150
F0.69
sS'2011-03-08'
p1151
F0.92
sS'2006-11-23'
p1152
F0.86
sS'2014-09-30'
p1153
I1
sS'2013-07-30'
p1154
F0.87
sS'2011-07-12'
p1155
I1
sS'2011-07-13'
p1156
F0.93
sS'2011-07-10'
p1157
F0.87
sS'2011-07-11'
p1158
F0.97
sS'2011-07-16'
p1159
F0.93
sS'2011-07-17'
p1160
F0.96
sS'2011-07-14'
p1161
F0.95
sS'2011-07-15'
p1162
F0.95
sS'2011-07-18'
p1163
F0.87
sS'2011-07-19'
p1164
F0.84
sS'2015-05-01'
p1165
F0.79
sS'2010-04-09'
p1166
F0.69
sS'2010-04-08'
p1167
F0.65
sS'2008-10-09'
p1168
F0.84
sS'2008-10-08'
p1169
F0.74
sS'2008-10-03'
p1170
F0.79
sS'2008-10-02'
p1171
F0.84
sS'2008-10-01'
p1172
F0.76
sS'2010-04-02'
p1173
F0.86
sS'2008-10-07'
p1174
F0.85
sS'2008-10-06'
p1175
F0.79
sS'2008-10-05'
p1176
F0.84
sS'2008-10-04'
p1177
F0.87
sS'2015-10-04'
p1178
F0.83
sS'2015-05-04'
p1179
F0.75
sS'2013-03-30'
p1180
F0.91
sS'2006-03-30'
p1181
F0.79
sS'2010-03-30'
p1182
F0.79
sS'2011-05-29'
p1183
F0.76
sS'2014-07-15'
p1184
F0.79
sS'2015-05-09'
p1185
F0.73
sS'2011-05-28'
p1186
F0.74
sS'2015-10-07'
p1187
F0.79
sS'2012-01-17'
p1188
F0.91
sS'2012-01-16'
p1189
F0.86
sS'2012-01-15'
p1190
F0.92
sS'2012-01-14'
p1191
F0.76
sS'2012-01-13'
p1192
F0.7
sS'2011-05-27'
p1193
F0.72
sS'2015-10-06'
p1194
F0.72
sS'2012-01-12'
p1195
F0.9
sS'2015-01-18'
p1196
F0.88
sS'2011-05-26'
p1197
F0.74
sS'2012-01-11'
p1198
F0.77
sS'2015-01-19'
p1199
F0.83
sS'2012-01-10'
p1200
F0.84
sS'2014-04-15'
p1201
F0.54
sS'2015-10-01'
p1202
F0.86
sS'2011-04-13'
p1203
F0.74
sS'2011-04-12'
p1204
F0.66
sS'2011-04-11'
p1205
F0.59
sS'2011-04-10'
p1206
F0.59
sS'2011-04-17'
p1207
F0.6
sS'2011-04-16'
p1208
F0.64
sS'2011-04-15'
p1209
F0.7
sS'2011-04-14'
p1210
F0.78
sS'2011-04-19'
p1211
F0.65
sS'2011-04-18'
p1212
F0.69
sS'2014-07-26'
p1213
F0.84
sS'2015-01-11'
p1214
F0.86
sS'2014-02-11'
p1215
F0.89
sS'2015-01-16'
p1216
F0.9
sS'2014-04-19'
p1217
F0.64
sS'2012-01-21'
p1218
F0.84
sS'2009-08-10'
p1219
F0.78
sS'2009-08-11'
p1220
F0.74
sS'2009-08-12'
p1221
F0.64
sS'2009-08-13'
p1222
F0.77
sS'2009-08-14'
p1223
F0.91
sS'2009-08-15'
p1224
F0.76
sS'2009-08-16'
p1225
F0.83
sS'2009-08-17'
p1226
F0.71
sS'2009-08-18'
p1227
I1
sS'2009-08-19'
p1228
F0.84
sS'2014-02-17'
p1229
F0.89
sS'2008-02-17'
p1230
F0.74
sS'2008-02-16'
p1231
F0.83
sS'2008-02-15'
p1232
F0.84
sS'2008-02-14'
p1233
F0.81
sS'2008-02-13'
p1234
F0.58
sS'2008-02-12'
p1235
F0.9
sS'2008-02-11'
p1236
F0.71
sS'2008-02-10'
p1237
F0.59
sS'2013-08-06'
p1238
F0.79
sS'2013-08-07'
p1239
F0.69
sS'2013-08-04'
p1240
F0.74
sS'2013-08-05'
p1241
F0.84
sS'2013-08-02'
p1242
F0.84
sS'2013-08-03'
p1243
F0.84
sS'2008-02-19'
p1244
F0.81
sS'2008-02-18'
p1245
F0.69
sS'2015-11-19'
p1246
F0.82
sS'2006-01-30'
p1247
F0.87
sS'2010-11-30'
p1248
F0.79
sS'2015-11-18'
p1249
F0.89
sS'2013-08-08'
p1250
F0.79
sS'2013-08-09'
p1251
F0.9
sS'2014-01-24'
p1252
F0.93
sS'2014-07-27'
p1253
F0.9
sS'2015-06-30'
p1254
F0.93
sS'2012-05-08'
p1255
F0.63
sS'2012-05-09'
p1256
F0.79
sS'2011-08-19'
p1257
F0.87
sS'2011-08-18'
p1258
F0.92
sS'2011-08-17'
p1259
F0.81
sS'2011-08-16'
p1260
F0.9
sS'2011-08-15'
p1261
F0.84
sS'2011-08-14'
p1262
F0.88
sS'2011-08-13'
p1263
F0.9
sS'2011-08-12'
p1264
F0.83
sS'2011-08-11'
p1265
F0.97
sS'2011-08-10'
p1266
F0.86
sS'2009-07-11'
p1267
F0.82
sS'2009-07-10'
p1268
F0.92
sS'2009-07-13'
p1269
F0.86
sS'2007-01-30'
p1270
F0.88
sS'2006-11-19'
p1271
F0.89
sS'2006-11-18'
p1272
F0.89
sS'2009-07-17'
p1273
F0.79
sS'2009-07-16'
p1274
F0.78
sS'2009-07-19'
p1275
F0.76
sS'2009-07-18'
p1276
F0.69
sS'2006-11-17'
p1277
F0.92
sS'2006-11-16'
p1278
F0.89
sS'2006-11-11'
p1279
F0.88
sS'2006-11-10'
p1280
F0.86
sS'2006-11-13'
p1281
F0.91
sS'2006-11-12'
p1282
F0.84
sS'2007-05-28'
p1283
F0.97
sS'2007-05-29'
p1284
F0.83
sS'2014-04-22'
p1285
F0.65
sS'2012-11-26'
p1286
F0.83
sS'2007-05-20'
p1287
F0.54
sS'2007-05-21'
p1288
F0.66
sS'2007-05-22'
p1289
F0.63
sS'2007-05-23'
p1290
F0.86
sS'2007-05-24'
p1291
F0.6
sS'2007-05-25'
p1292
F0.76
sS'2007-05-26'
p1293
F0.72
sS'2007-05-27'
p1294
F0.77
sS'2009-07-30'
p1295
F0.75
sS'2012-09-19'
p1296
F0.9
sS'2012-09-18'
p1297
F0.93
sS'2012-09-17'
p1298
F0.96
sS'2012-09-16'
p1299
F0.82
sS'2012-09-15'
p1300
F0.79
sS'2012-09-14'
p1301
F0.69
sS'2012-09-13'
p1302
F0.87
sS'2012-09-12'
p1303
F0.93
sS'2012-09-11'
p1304
F0.89
sS'2009-11-17'
p1305
F0.78
sS'2012-11-21'
p1306
F0.82
sS'2010-10-23'
p1307
F0.87
sS'2012-11-20'
p1308
F0.75
sS'2011-11-06'
p1309
F0.87
sS'2011-11-07'
p1310
F0.83
sS'2011-11-04'
p1311
F0.78
sS'2011-11-05'
p1312
F0.83
sS'2011-11-02'
p1313
F0.87
sS'2011-11-03'
p1314
F0.85
sS'2015-10-10'
p1315
F0.83
sS'2011-11-01'
p1316
F0.76
sS'2015-10-08'
p1317
F0.86
sS'2007-09-30'
p1318
F0.87
sS'2011-11-08'
p1319
F0.83
sS'2011-11-09'
p1320
F0.87
sS'2012-10-19'
p1321
F0.84
sS'2012-10-18'
p1322
F0.78
sS'2012-10-11'
p1323
F0.97
sS'2012-10-10'
p1324
F0.9
sS'2012-10-13'
p1325
F0.9
sS'2012-10-12'
p1326
F0.93
sS'2012-10-15'
p1327
F0.86
sS'2011-05-30'
p1328
F0.74
sS'2012-10-17'
p1329
F0.8
sS'2012-10-16'
p1330
F0.82
sS'2014-01-25'
p1331
F0.78
sS'2010-10-21'
p1332
F0.73
sS'2014-07-24'
p1333
F0.84
sS'2014-07-18'
p1334
F0.87
sS'2015-04-17'
p1335
F0.74
sS'2006-08-01'
p1336
F0.93
sS'2006-08-02'
p1337
F0.8
sS'2006-08-03'
p1338
F0.83
sS'2006-08-04'
p1339
F0.84
sS'2006-08-05'
p1340
F0.85
sS'2006-08-06'
p1341
F0.83
sS'2006-08-07'
p1342
F0.84
sS'2006-08-08'
p1343
F0.8
sS'2006-08-09'
p1344
F0.84
sS'2013-04-01'
p1345
F0.89
sS'2013-04-06'
p1346
F0.84
sS'2013-04-07'
p1347
F0.78
sS'2013-04-04'
p1348
F0.72
sS'2013-04-05'
p1349
F0.85
sS'2010-10-27'
p1350
F0.84
sS'2009-03-08'
p1351
F0.81
sS'2009-03-09'
p1352
F0.82
sS'2009-03-06'
p1353
F0.79
sS'2009-03-07'
p1354
F0.8
sS'2009-03-04'
p1355
F0.84
sS'2009-03-05'
p1356
F0.76
sS'2009-03-02'
p1357
F0.79
sS'2009-03-03'
p1358
F0.77
sS'2009-03-01'
p1359
F0.79
sS'2010-07-30'
p1360
F0.76
sS'2011-03-30'
p1361
F0.66
sS'2013-04-24'
p1362
F0.97
sS'2013-04-25'
p1363
F0.63
sS'2013-04-26'
p1364
F0.68
sS'2011-06-20'
p1365
F0.83
sS'2014-01-28'
p1366
F0.79
sS'2013-04-27'
p1367
F0.71
sS'2014-01-29'
p1368
F0.83
sS'2013-04-20'
p1369
F0.79
sS'2010-10-25'
p1370
F0.84
sS'2013-04-21'
p1371
F0.78
sS'2013-07-21'
p1372
F0.93
sS'2013-07-20'
p1373
F0.91
sS'2013-07-23'
p1374
F0.85
sS'2013-07-22'
p1375
F0.9
sS'2013-07-25'
p1376
F0.9
sS'2013-04-22'
p1377
F0.72
sS'2013-07-27'
p1378
F0.85
sS'2013-07-26'
p1379
F0.9
sS'2013-07-29'
p1380
F0.84
sS'2013-07-28'
p1381
F0.84
sS'2013-04-23'
p1382
F0.72
sS'2011-07-01'
p1383
F0.85
sS'2012-02-17'
p1384
F0.79
sS'2011-07-03'
p1385
F0.93
sS'2011-07-02'
p1386
I1
sS'2011-07-05'
p1387
F0.77
sS'2011-07-04'
p1388
F0.85
sS'2011-07-07'
p1389
F0.84
sS'2011-07-06'
p1390
F0.86
sS'2011-07-09'
p1391
F0.86
sS'2011-07-08'
p1392
F0.97
sS'2012-02-18'
p1393
F0.81
sS'2012-02-19'
p1394
F0.79
sS'2014-01-20'
p1395
F0.86
sS'2010-04-30'
p1396
F0.65
sS'2014-01-22'
p1397
F0.86
sS'2015-04-12'
p1398
F0.76
sS'2010-03-08'
p1399
F0.73
sS'2010-03-09'
p1400
F0.66
sS'2014-01-23'
p1401
F0.9
sS'2013-03-29'
p1402
F0.85
sS'2013-03-28'
p1403
F0.84
sS'2007-03-01'
p1404
F0.65
sS'2013-03-25'
p1405
F0.82
sS'2010-03-01'
p1406
F0.74
sS'2010-03-02'
p1407
F0.64
sS'2010-03-03'
p1408
F0.82
sS'2010-03-04'
p1409
F0.85
sS'2010-03-05'
p1410
F0.88
sS'2010-03-06'
p1411
F0.84
sS'2010-03-07'
p1412
F0.82
sS'2006-03-27'
p1413
F0.78
sS'2006-03-26'
p1414
F0.8
sS'2006-03-25'
p1415
F0.83
sS'2006-03-24'
p1416
F0.79
sS'2006-03-23'
p1417
F0.77
sS'2006-03-22'
p1418
F0.74
sS'2006-03-21'
p1419
F0.72
sS'2006-03-20'
p1420
F0.71
sS'2014-01-27'
p1421
F0.79
sS'2006-03-29'
p1422
F0.83
sS'2006-03-28'
p1423
F0.8
sS'2012-11-28'
p1424
F0.81
sS'2015-11-17'
p1425
F0.86
sS'2007-03-07'
p1426
F0.79
sS'2015-10-17'
p1427
F0.73
sS'2007-03-09'
p1428
F0.85
sS'2014-10-03'
p1429
F0.94
sS'2011-11-28'
p1430
F0.74
sS'2010-11-21'
p1431
F0.81
sS'2015-11-16'
p1432
F0.86
sS'2014-07-02'
p1433
F0.93
sS'2015-10-18'
p1434
F0.79
sS'2008-04-30'
p1435
F0.72
sS'2015-10-13'
p1436
F0.86
sS'2010-11-20'
p1437
F0.8
sS'2014-07-03'
p1438
F0.93
sS'2011-11-20'
p1439
F0.84
sS'2011-11-21'
p1440
F0.81
sS'2012-11-25'
p1441
F0.78
sS'2014-07-22'
p1442
F0.79
sS'2012-06-12'
p1443
F0.93
sS'2012-06-13'
p1444
F0.97
sS'2012-06-10'
p1445
F0.76
sS'2012-06-11'
p1446
F0.79
sS'2012-06-16'
p1447
F0.9
sS'2012-06-17'
p1448
F0.9
sS'2012-06-14'
p1449
F0.77
sS'2012-06-15'
p1450
F0.91
sS'2012-06-18'
p1451
I1
sS'2012-06-19'
p1452
F0.93
sS'2009-08-07'
p1453
F0.72
sS'2009-08-06'
p1454
F0.69
sS'2009-08-05'
p1455
F0.75
sS'2009-08-04'
p1456
F0.9
sS'2009-08-03'
p1457
F0.86
sS'2009-08-02'
p1458
F0.93
sS'2009-08-01'
p1459
F0.91
sS'2015-08-22'
p1460
F0.93
sS'2015-08-23'
p1461
F0.8
sS'2015-08-20'
p1462
F0.9
sS'2015-08-21'
p1463
F0.81
sS'2015-08-26'
p1464
F0.79
sS'2015-08-27'
p1465
F0.83
sS'2009-08-09'
p1466
F0.9
sS'2009-08-08'
p1467
F0.87
sS'2013-08-19'
p1468
F0.89
sS'2013-08-18'
p1469
F0.93
sS'2013-08-15'
p1470
F0.74
sS'2013-08-14'
p1471
F0.93
sS'2013-08-17'
p1472
F0.9
sS'2013-08-16'
p1473
F0.74
sS'2013-08-11'
p1474
F0.93
sS'2013-08-10'
p1475
I1
sS'2013-08-13'
p1476
F0.93
sS'2012-11-23'
p1477
F0.85
sS'2006-01-29'
p1478
F0.86
sS'2006-01-28'
p1479
F0.84
sS'2010-11-29'
p1480
F0.93
sS'2010-11-28'
p1481
F0.79
sS'2006-01-21'
p1482
F0.85
sS'2006-01-20'
p1483
F0.89
sS'2006-01-23'
p1484
F0.78
sS'2006-01-22'
p1485
F0.84
sS'2006-01-25'
p1486
F0.82
sS'2006-01-24'
p1487
F0.83
sS'2006-01-27'
p1488
F0.81
sS'2006-01-26'
p1489
F0.84
sS'2012-11-22'
p1490
F0.86
sS'2010-10-09'
p1491
F0.78
sS'2015-04-26'
p1492
F0.55
sS'2015-04-27'
p1493
F0.62
sS'2015-04-24'
p1494
F0.57
sS'2015-04-25'
p1495
F0.55
sS'2015-04-22'
p1496
F0.79
sS'2015-04-23'
p1497
F0.69
sS'2015-04-20'
p1498
F0.55
sS'2015-04-21'
p1499
F0.97
sS'2015-04-28'
p1500
F0.66
sS'2015-04-29'
p1501
F0.72
sS'2012-05-04'
p1502
F0.59
sS'2012-05-05'
p1503
F0.64
sS'2012-05-06'
p1504
F0.68
sS'2010-10-07'
p1505
F0.41
sS'2009-04-05'
p1506
F0.63
sS'2012-05-01'
p1507
F0.67
sS'2012-05-13'
p1508
F0.66
sS'2012-05-12'
p1509
F0.74
sS'2012-05-11'
p1510
F0.74
sS'2012-05-10'
p1511
F0.82
sS'2012-05-17'
p1512
F0.8
sS'2008-09-14'
p1513
F0.76
sS'2012-05-15'
p1514
F0.75
sS'2012-05-14'
p1515
F0.75
sS'2012-05-19'
p1516
F0.65
sS'2012-05-03'
p1517
F0.63
sS'2014-07-23'
p1518
F0.74
sS'2009-07-24'
p1519
F0.77
sS'2006-05-24'
p1520
F0.81
sS'2009-07-26'
p1521
F0.82
sS'2009-07-27'
p1522
F0.96
sS'2009-07-20'
p1523
F0.68
sS'2009-07-21'
p1524
F0.72
sS'2006-05-23'
p1525
F0.8
sS'2009-07-23'
p1526
F0.76
sS'2006-11-28'
p1527
F0.83
sS'2006-11-29'
p1528
F0.82
sS'2009-07-28'
p1529
F0.85
sS'2009-07-29'
p1530
F0.75
sS'2015-11-08'
p1531
F0.87
sS'2009-07-12'
p1532
F0.75
sS'2009-07-15'
p1533
F0.76
sS'2009-07-14'
p1534
F0.73
sS'2015-03-18'
p1535
F0.82
sS'2015-03-19'
p1536
F0.86
sS'2006-05-30'
p1537
F0.82
sS'2015-03-12'
p1538
F0.9
sS'2015-03-13'
p1539
F0.94
sS'2015-03-10'
p1540
F0.92
sS'2012-11-02'
p1541
F0.84
sS'2015-03-16'
p1542
F0.89
sS'2014-10-15'
p1543
F0.79
sS'2015-03-14'
p1544
F0.85
sS'2015-03-15'
p1545
F0.84
sS'2006-11-15'
p1546
F0.94
sS'2013-11-08'
p1547
F0.84
sS'2013-11-09'
p1548
F0.87
sS'2006-11-14'
p1549
F0.97
sS'2013-11-04'
p1550
F0.87
sS'2013-11-05'
p1551
F0.89
sS'2013-11-06'
p1552
F0.85
sS'2013-11-07'
p1553
F0.84
sS'2013-11-01'
p1554
F0.82
sS'2013-11-02'
p1555
F0.89
sS'2013-11-03'
p1556
F0.9
sS'2011-11-15'
p1557
F0.78
sS'2011-11-14'
p1558
F0.93
sS'2011-11-17'
p1559
F0.81
sS'2011-11-16'
p1560
F0.8
sS'2011-11-11'
p1561
F0.82
sS'2011-11-10'
p1562
F0.75
sS'2011-11-13'
p1563
F0.86
sS'2011-11-12'
p1564
F0.84
sS'2012-11-09'
p1565
F0.85
sS'2011-11-19'
p1566
F0.82
sS'2011-11-18'
p1567
F0.84
sS'2012-11-08'
p1568
F0.75
sS'2013-07-08'
p1569
F0.86
sS'2012-10-28'
p1570
F0.88
sS'2012-10-29'
p1571
F0.89
sS'2013-02-23'
p1572
F0.7
sS'2012-10-24'
p1573
F0.73
sS'2012-10-25'
p1574
F0.87
sS'2012-10-26'
p1575
F0.81
sS'2009-05-10'
p1576
F0.78
sS'2012-10-20'
p1577
F0.79
sS'2012-10-21'
p1578
F0.87
sS'2012-10-22'
p1579
F0.86
sS'2012-10-23'
p1580
F0.87
sS'2007-07-28'
p1581
F0.97
sS'2007-07-29'
p1582
F0.86
sS'2007-07-22'
p1583
F0.89
sS'2007-07-23'
p1584
F0.78
sS'2007-07-20'
p1585
F0.95
sS'2007-07-21'
p1586
F0.73
sS'2007-07-26'
p1587
F0.79
sS'2007-07-27'
p1588
F0.81
sS'2007-07-24'
p1589
F0.69
sS'2007-07-25'
p1590
F0.8
sS'2014-10-19'
p1591
F0.93
sS'2013-07-02'
p1592
F0.92
sS'2013-02-25'
p1593
F0.78
sS'2014-06-30'
p1594
F0.84
sS'2006-08-17'
p1595
F0.7
sS'2006-08-16'
p1596
F0.85
sS'2006-08-15'
p1597
F0.85
sS'2006-08-14'
p1598
I1
sS'2006-08-13'
p1599
F0.86
sS'2006-08-12'
p1600
F0.78
sS'2006-08-11'
p1601
F0.78
sS'2006-08-10'
p1602
F0.84
sS'2013-04-11'
p1603
F0.57
sS'2013-04-10'
p1604
F0.62
sS'2013-04-13'
p1605
F0.7
sS'2013-04-12'
p1606
F0.62
sS'2013-04-15'
p1607
F0.6
sS'2013-04-14'
p1608
F0.6
sS'2006-08-19'
p1609
F0.89
sS'2006-08-18'
p1610
F0.9
sS'2009-03-19'
p1611
F0.82
sS'2009-03-18'
p1612
F0.81
sS'2009-03-15'
p1613
F0.7
sS'2009-03-14'
p1614
F0.75
sS'2009-03-17'
p1615
F0.69
sS'2009-03-16'
p1616
F0.77
sS'2009-03-11'
p1617
F0.75
sS'2009-03-10'
p1618
F0.74
sS'2009-03-13'
p1619
F0.81
sS'2009-03-12'
p1620
F0.75
sS'2010-07-04'
p1621
F0.95
sS'2010-07-05'
p1622
F0.85
sS'2010-07-06'
p1623
F0.7
sS'2010-07-07'
p1624
F0.8
sS'2015-11-02'
p1625
F0.94
sS'2010-07-01'
p1626
F0.8
sS'2010-07-02'
p1627
F0.77
sS'2010-07-03'
p1628
F0.89
sS'2011-03-27'
p1629
F0.71
sS'2011-03-26'
p1630
F0.8
sS'2011-03-25'
p1631
F0.82
sS'2011-03-24'
p1632
F0.67
sS'2010-07-08'
p1633
I1
sS'2010-07-09'
p1634
F0.98
sS'2011-03-21'
p1635
F0.77
sS'2011-03-20'
p1636
F0.77
sS'2015-04-01'
p1637
F0.78
sS'2015-11-03'
p1638
F0.88
sS'2013-07-14'
p1639
F0.87
sS'2008-06-22'
p1640
F0.72
sS'2013-07-16'
p1641
F0.9
sS'2013-07-17'
p1642
F0.9
sS'2013-07-10'
p1643
F0.9
sS'2013-07-11'
p1644
I1
sS'2013-07-12'
p1645
F0.87
sS'2009-06-04'
p1646
F0.78
sS'2013-07-18'
p1647
F0.79
sS'2008-06-20'
p1648
F0.91
sS'2012-02-05'
p1649
F0.84
sS'2012-02-04'
p1650
F0.87
sS'2012-02-07'
p1651
F0.82
sS'2008-06-21'
p1652
F0.97
sS'2011-07-30'
p1653
F0.89
sS'2012-02-03'
p1654
F0.8
sS'2012-02-02'
p1655
F0.81
sS'2008-06-26'
p1656
F0.81
sS'2012-02-09'
p1657
F0.86
sS'2012-02-08'
p1658
F0.86
sS'2010-04-23'
p1659
F0.58
sS'2010-04-22'
p1660
F0.79
sS'2010-04-21'
p1661
F0.75
sS'2010-04-20'
p1662
F0.72
sS'2010-04-27'
p1663
F0.71
sS'2008-06-24'
p1664
F0.81
sS'2010-04-25'
p1665
F0.55
sS'2010-04-24'
p1666
F0.62
sS'2010-04-29'
p1667
F0.67
sS'2008-06-25'
p1668
F0.79
sS'2014-03-09'
p1669
F0.75
sS'2013-03-10'
p1670
F0.85
sS'2013-03-11'
p1671
F0.84
sS'2013-03-12'
p1672
F0.82
sS'2013-03-13'
p1673
F0.87
sS'2013-03-14'
p1674
F0.89
sS'2013-03-15'
p1675
F0.85
sS'2010-03-19'
p1676
F0.8
sS'2010-03-18'
p1677
F0.73
sS'2010-03-17'
p1678
F0.81
sS'2010-03-16'
p1679
F0.81
sS'2010-03-15'
p1680
F0.76
sS'2010-03-14'
p1681
F0.65
sS'2010-03-13'
p1682
F0.9
sS'2010-03-12'
p1683
F0.63
sS'2010-03-11'
p1684
F0.71
sS'2010-03-10'
p1685
F0.7
sS'2014-07-14'
p1686
F0.84
sS'2013-10-08'
p1687
F0.93
sS'2014-03-07'
p1688
F0.94
sS'2013-11-30'
p1689
F0.83
sS'2007-10-19'
p1690
F0.92
sS'2006-05-26'
p1691
F0.89
sS'2015-05-29'
p1692
F0.71
sS'2011-06-22'
p1693
F0.81
sS'2014-09-11'
p1694
F0.97
sS'2015-10-14'
p1695
F0.86
sS'2014-09-10'
p1696
F0.97
sS'2009-07-04'
p1697
F0.72
sS'2015-10-15'
p1698
F0.87
sS'2015-10-12'
p1699
F0.79
sS'2013-05-13'
p1700
F0.86
sS'2012-02-25'
p1701
F0.77
sS'2013-05-11'
p1702
F0.47
sS'2015-09-12'
p1703
F0.84
sS'2009-07-05'
p1704
F0.76
sS'2012-06-03'
p1705
F0.94
sS'2012-06-02'
p1706
F0.74
sS'2012-06-05'
p1707
F0.95
sS'2012-06-04'
p1708
F0.94
sS'2012-06-07'
p1709
F0.67
sS'2012-06-06'
p1710
F0.79
sS'2012-06-09'
p1711
F0.9
sS'2012-06-08'
p1712
F0.69
sS'2014-10-24'
p1713
F0.93
sS'2014-10-25'
p1714
F0.73
sS'2014-10-22'
p1715
F0.93
sS'2014-10-23'
p1716
I1
sS'2014-10-20'
p1717
F0.98
sS'2014-10-21'
p1718
F0.93
sS'2015-08-30'
p1719
F0.88
sS'2013-08-20'
p1720
F0.9
sS'2013-08-21'
p1721
F0.93
sS'2013-08-22'
p1722
F0.94
sS'2013-08-23'
p1723
F0.78
sS'2013-08-24'
p1724
F0.72
sS'2013-08-25'
p1725
F0.84
sS'2013-08-26'
p1726
F0.97
sS'2013-08-27'
p1727
F0.97
sS'2013-08-28'
p1728
F0.9
sS'2013-08-29'
p1729
F0.91
sS'2015-05-26'
p1730
F0.79
sS'2010-11-10'
p1731
F0.88
sS'2010-11-11'
p1732
F0.83
sS'2010-11-12'
p1733
F0.81
sS'2010-02-22'
p1734
F0.57
sS'2006-01-18'
p1735
F0.77
sS'2006-01-19'
p1736
F0.84
sS'2010-11-16'
p1737
F0.78
sS'2010-11-17'
p1738
F0.86
sS'2006-01-14'
p1739
F0.84
sS'2006-01-15'
p1740
F0.8
sS'2006-01-16'
p1741
F0.81
sS'2006-01-17'
p1742
F0.82
sS'2006-01-10'
p1743
F0.87
sS'2006-01-11'
p1744
F0.81
sS'2006-01-12'
p1745
F0.85
sS'2006-01-13'
p1746
F0.88
sS'2014-05-28'
p1747
I1
sS'2010-08-16'
p1748
I1
sS'2010-08-17'
p1749
F0.94
sS'2010-08-14'
p1750
F0.88
sS'2010-08-15'
p1751
F0.97
sS'2010-08-12'
p1752
F0.98
sS'2010-08-13'
p1753
F0.92
sS'2010-08-10'
p1754
F0.9
sS'2010-08-11'
p1755
F0.92
sS'2010-08-18'
p1756
F0.98
sS'2010-08-19'
p1757
I1
sS'2014-05-29'
p1758
F0.69
sS'2015-05-27'
p1759
F0.76
sS'2014-10-18'
p1760
F0.93
sS'2013-03-20'
p1761
F0.84
sS'2012-10-14'
p1762
F0.87
sS'2006-11-30'
p1763
F0.91
sS'2015-11-09'
p1764
F0.84
sS'2015-03-09'
p1765
F0.87
sS'2015-03-08'
p1766
F0.83
sS'2015-03-01'
p1767
F0.9
sS'2006-05-29'
p1768
F0.88
sS'2015-03-02'
p1769
F0.83
sS'2015-03-05'
p1770
F0.69
sS'2015-03-04'
p1771
F0.87
sS'2015-03-07'
p1772
F0.88
sS'2015-03-06'
p1773
F0.85
sS'2013-11-13'
p1774
F0.87
sS'2013-11-12'
p1775
F0.84
sS'2013-11-11'
p1776
F0.88
sS'2013-11-10'
p1777
F0.85
sS'2013-11-17'
p1778
F0.88
sS'2013-11-16'
p1779
F0.85
sS'2013-11-15'
p1780
F0.89
sS'2013-11-14'
p1781
F0.83
sS'2013-11-19'
p1782
F0.85
sS'2013-11-18'
p1783
F0.9
sS'2011-09-30'
p1784
F0.96
sS'2012-10-30'
p1785
F0.89
sS'2008-03-30'
p1786
F0.7
sS'2007-07-30'
p1787
F0.81
sS'2006-05-18'
p1788
F0.8
sS'2006-05-19'
p1789
F0.73
sS'2012-05-16'
p1790
F0.72
sS'2006-05-10'
p1791
F0.49
sS'2006-05-11'
p1792
F0.67
sS'2006-05-12'
p1793
F0.66
sS'2006-05-13'
p1794
F0.8
sS'2006-05-14'
p1795
F0.76
sS'2006-05-15'
p1796
F0.88
sS'2006-05-16'
p1797
F0.97
sS'2006-05-17'
p1798
F0.81
sS'2014-06-21'
p1799
F0.93
sS'2014-06-20'
p1800
F0.79
sS'2014-06-23'
p1801
F0.93
sS'2014-06-22'
p1802
F0.79
sS'2014-06-25'
p1803
F0.9
sS'2014-06-24'
p1804
F0.93
sS'2014-06-27'
p1805
F0.79
sS'2014-06-26'
p1806
F0.97
sS'2014-06-29'
p1807
F0.85
sS'2014-06-28'
p1808
F0.9
sS'2008-07-29'
p1809
F0.77
sS'2008-07-28'
p1810
F0.79
sS'2008-07-25'
p1811
I1
sS'2008-07-24'
p1812
F0.94
sS'2008-07-27'
p1813
F0.77
sS'2008-07-26'
p1814
F0.88
sS'2008-07-21'
p1815
F0.84
sS'2008-07-20'
p1816
F0.98
sS'2008-07-23'
p1817
F0.92
sS'2008-07-22'
p1818
F0.82
sS'2014-05-08'
p1819
F0.59
sS'2014-05-09'
p1820
F0.59
sS'2014-05-02'
p1821
F0.74
sS'2014-05-03'
p1822
F0.74
sS'2014-05-01'
p1823
F0.65
sS'2014-05-06'
p1824
F0.69
sS'2014-05-07'
p1825
F0.65
sS'2014-05-04'
p1826
F0.68
sS'2014-05-05'
p1827
F0.73
sS'2009-03-20'
p1828
F0.8
sS'2009-03-21'
p1829
F0.63
sS'2009-03-22'
p1830
F0.78
sS'2009-03-23'
p1831
F0.78
sS'2009-03-24'
p1832
F0.78
sS'2009-03-25'
p1833
F0.84
sS'2009-03-26'
p1834
F0.57
sS'2009-03-27'
p1835
F0.65
sS'2009-03-28'
p1836
F0.6
sS'2009-03-29'
p1837
F0.57
sS'2011-11-22'
p1838
F0.83
sS'2011-11-23'
p1839
F0.87
sS'2011-11-24'
p1840
F0.75
sS'2011-11-25'
p1841
F0.75
sS'2011-11-26'
p1842
F0.88
sS'2011-11-27'
p1843
F0.8
sS'2006-10-18'
p1844
F0.81
sS'2006-10-19'
p1845
F0.74
sS'2006-10-12'
p1846
F0.85
sS'2006-10-13'
p1847
F0.93
sS'2006-10-10'
p1848
F0.79
sS'2006-10-11'
p1849
F0.81
sS'2006-10-16'
p1850
F0.82
sS'2006-10-17'
p1851
F0.64
sS'2006-10-14'
p1852
F0.85
sS'2006-10-15'
p1853
F0.83
sS'2012-03-24'
p1854
F0.81
sS'2012-03-25'
p1855
F0.83
sS'2012-03-26'
p1856
F0.72
sS'2013-07-09'
p1857
F0.84
sS'2012-03-27'
p1858
F0.87
sS'2013-07-03'
p1859
F0.93
sS'2012-03-20'
p1860
F0.71
sS'2013-07-01'
p1861
F0.9
sS'2013-07-07'
p1862
F0.94
sS'2013-07-06'
p1863
I1
sS'2013-07-05'
p1864
F0.97
sS'2012-03-21'
p1865
F0.9
sS'2012-03-22'
p1866
F0.87
sS'2012-08-30'
p1867
F0.97
sS'2012-03-23'
p1868
F0.82
sS'2014-01-06'
p1869
F0.85
sS'2014-01-07'
p1870
F0.9
sS'2014-01-04'
p1871
F0.88
sS'2014-01-05'
p1872
F0.88
sS'2014-01-02'
p1873
F0.86
sS'2014-01-03'
p1874
F0.84
sS'2014-01-01'
p1875
F0.9
sS'2014-01-08'
p1876
F0.8
sS'2014-01-09'
p1877
F0.83
sS'2013-03-07'
p1878
F0.81
sS'2013-03-06'
p1879
F0.79
sS'2013-03-05'
p1880
F0.76
sS'2013-03-04'
p1881
F0.77
sS'2013-03-03'
p1882
F0.68
sS'2013-03-02'
p1883
F0.88
sS'2013-03-01'
p1884
F0.87
sS'2012-01-30'
p1885
F0.79
sS'2013-03-09'
p1886
F0.88
sS'2013-03-08'
p1887
F0.9
sS'2010-07-19'
p1888
F0.98
sS'2010-07-18'
p1889
F0.72
sS'2010-07-13'
p1890
F0.8
sS'2010-07-12'
p1891
F0.75
sS'2010-07-11'
p1892
I1
sS'2010-07-10'
p1893
F0.91
sS'2010-07-17'
p1894
F0.74
sS'2010-07-16'
p1895
F0.79
sS'2010-07-15'
p1896
F0.93
sS'2010-07-14'
p1897
I1
sS'2015-02-09'
p1898
F0.85
sS'2013-04-02'
p1899
F0.74
sS'2013-04-03'
p1900
F0.72
sS'2011-07-29'
p1901
I1
sS'2011-07-28'
p1902
F0.9
sS'2011-07-23'
p1903
F0.79
sS'2011-07-22'
p1904
F0.93
sS'2011-07-21'
p1905
F0.84
sS'2011-07-20'
p1906
I1
sS'2011-07-27'
p1907
F0.79
sS'2011-07-26'
p1908
F0.87
sS'2011-07-25'
p1909
F0.84
sS'2011-07-24'
p1910
F0.86
sS'2012-06-30'
p1911
F0.93
sS'2014-10-30'
p1912
F0.89
sS'2015-08-08'
p1913
F0.69
sS'2015-08-09'
p1914
F0.69
sS'2015-08-04'
p1915
F0.78
sS'2015-08-05'
p1916
F0.78
sS'2015-08-06'
p1917
F0.74
sS'2015-08-07'
p1918
F0.83
sS'2015-08-01'
p1919
F0.76
sS'2015-08-02'
p1920
F0.84
sS'2015-08-03'
p1921
F0.69
sS'2009-09-04'
p1922
F0.84
sS'2009-09-05'
p1923
F0.82
sS'2009-09-06'
p1924
F0.78
sS'2006-01-03'
p1925
F0.92
sS'2006-01-02'
p1926
F0.89
sS'2006-01-01'
p1927
F0.93
sS'2009-09-07'
p1928
F0.94
sS'2006-01-07'
p1929
F0.83
sS'2006-01-06'
p1930
F0.86
sS'2006-01-05'
p1931
F0.94
sS'2006-01-04'
p1932
F0.92
sS'2006-01-09'
p1933
F0.86
sS'2006-01-08'
p1934
F0.89
sS'2010-11-09'
p1935
F0.86
sS'2009-09-01'
p1936
F0.79
sS'2009-09-02'
p1937
F0.81
sS'2009-09-03'
p1938
F0.8
sS'2010-08-05'
p1939
F0.98
sS'2010-08-04'
p1940
F0.92
sS'2010-08-07'
p1941
F0.94
sS'2010-08-06'
p1942
I1
sS'2010-08-01'
p1943
F0.77
sS'2010-08-03'
p1944
F0.95
sS'2010-08-02'
p1945
F0.89
sS'2010-08-09'
p1946
F0.94
sS'2010-08-08'
p1947
F0.88
sS'2014-07-20'
p1948
F0.9
sS'2009-09-28'
p1949
F0.83
sS'2009-09-29'
p1950
F0.78
sS'2009-09-22'
p1951
F0.89
sS'2009-09-23'
p1952
F0.81
sS'2009-09-20'
p1953
F0.81
sS'2009-09-21'
p1954
F0.9
sS'2009-09-26'
p1955
F0.96
sS'2009-09-27'
p1956
F0.97
sS'2009-09-24'
p1957
F0.84
sS'2009-09-25'
p1958
F0.96
sS'2013-09-04'
p1959
I1
sS'2015-06-13'
p1960
F0.93
sS'2015-04-08'
p1961
F0.7
sS'2015-04-09'
p1962
F0.76
sS'2015-06-12'
p1963
I1
sS'2009-11-01'
p1964
F0.91
sS'2015-04-02'
p1965
F0.83
sS'2015-04-03'
p1966
F0.85
sS'2015-04-04'
p1967
F0.89
sS'2015-04-05'
p1968
F0.75
sS'2015-04-06'
p1969
F0.66
sS'2015-04-07'
p1970
F0.64
sS'2011-09-29'
p1971
I1
sS'2011-09-28'
p1972
F0.97
sS'2011-09-21'
p1973
F0.91
sS'2011-09-20'
p1974
F0.91
sS'2011-09-23'
p1975
F0.9
sS'2011-09-22'
p1976
F0.93
sS'2011-09-25'
p1977
F0.88
sS'2011-09-24'
p1978
F0.9
sS'2011-09-27'
p1979
F0.9
sS'2011-09-26'
p1980
F0.87
sS'2008-08-02'
p1981
F0.93
sS'2008-08-03'
p1982
F0.78
sS'2008-08-01'
p1983
F0.9
sS'2008-08-06'
p1984
F0.88
sS'2008-08-07'
p1985
F0.83
sS'2008-08-04'
p1986
F0.91
sS'2008-08-05'
p1987
F0.92
sS'2008-08-08'
p1988
F0.79
sS'2008-08-09'
p1989
F0.81
sS'2010-10-20'
p1990
F0.76
sS'2008-03-21'
p1991
F0.74
sS'2008-03-20'
p1992
F0.76
sS'2008-03-23'
p1993
F0.87
sS'2008-03-22'
p1994
F0.83
sS'2008-03-25'
p1995
F0.8
sS'2008-03-24'
p1996
F0.82
sS'2008-03-27'
p1997
F0.79
sS'2008-03-26'
p1998
F0.78
sS'2008-03-29'
p1999
F0.62
sS'2008-03-28'
p2000
F0.74
sS'2007-07-06'
p2001
F0.74
sS'2007-07-07'
p2002
F0.85
sS'2007-07-01'
p2003
F0.79
sS'2007-07-02'
p2004
F0.64
sS'2007-07-03'
p2005
F0.74
sS'2010-10-24'
p2006
F0.84
sS'2006-05-09'
p2007
F0.62
sS'2006-05-08'
p2008
F0.72
sS'2006-05-07'
p2009
F0.72
sS'2006-05-06'
p2010
F0.79
sS'2006-05-05'
p2011
F0.8
sS'2006-05-04'
p2012
F0.86
sS'2006-05-03'
p2013
F0.83
sS'2006-05-02'
p2014
F0.86
sS'2006-05-01'
p2015
F0.78
sS'2014-06-14'
p2016
F0.93
sS'2014-06-15'
p2017
F0.9
sS'2014-06-16'
p2018
F0.9
sS'2014-06-17'
p2019
F0.79
sS'2014-06-10'
p2020
F0.9
sS'2014-06-11'
p2021
F0.79
sS'2014-06-12'
p2022
F0.93
sS'2014-06-13'
p2023
I1
sS'2014-06-18'
p2024
F0.9
sS'2014-06-19'
p2025
F0.84
sS'2008-07-10'
p2026
F0.98
sS'2008-07-11'
p2027
F0.82
sS'2008-07-12'
p2028
F0.91
sS'2008-07-13'
p2029
F0.99
sS'2008-07-14'
p2030
F0.76
sS'2008-07-15'
p2031
I1
sS'2008-07-16'
p2032
F0.79
sS'2008-07-17'
p2033
F0.79
sS'2008-07-18'
p2034
F0.84
sS'2008-07-19'
p2035
F0.77
sS'2007-04-12'
p2036
F0.65
sS'2007-04-13'
p2037
F0.47
sS'2007-04-10'
p2038
F0.63
sS'2007-04-11'
p2039
F0.6
sS'2007-04-16'
p2040
F0.7
sS'2007-04-17'
p2041
F0.67
sS'2007-04-14'
p2042
F0.57
sS'2007-04-15'
p2043
F0.62
sS'2014-05-11'
p2044
F0.89
sS'2014-05-10'
p2045
F0.6
sS'2007-04-18'
p2046
F0.61
sS'2007-04-19'
p2047
F0.69
sS'2014-05-15'
p2048
F0.73
sS'2014-05-14'
p2049
F0.89
sS'2014-05-17'
p2050
F0.63
sS'2014-05-16'
p2051
F0.68
sS'2014-04-27'
p2052
F0.55
sS'2014-05-12'
p2053
F0.9
sS'2015-10-29'
p2054
F0.96
sS'2009-03-30'
p2055
F0.83
sS'2015-10-27'
p2056
F0.87
sS'2015-10-26'
p2057
F0.91
sS'2015-10-25'
p2058
F0.84
sS'2015-10-24'
p2059
F0.9
sS'2015-10-23'
p2060
F0.86
sS'2014-04-25'
p2061
F0.69
sS'2015-10-21'
p2062
F0.93
sS'2011-11-30'
p2063
F0.84
sS'2006-10-09'
p2064
F0.84
sS'2006-10-08'
p2065
F0.83
sS'2014-04-24'
p2066
F0.9
sS'2006-10-01'
p2067
F0.79
sS'2014-04-23'
p2068
F0.65
sS'2006-10-03'
p2069
F0.73
sS'2006-10-02'
p2070
F0.76
sS'2006-10-05'
p2071
F0.75
sS'2006-10-04'
p2072
F0.84
sS'2006-10-07'
p2073
F0.69
sS'2006-10-06'
p2074
F0.79
sS'2014-04-21'
p2075
F0.69
sS'2014-04-20'
p2076
F0.69
sS'2015-06-28'
p2077
F0.81
sS'2015-08-29'
p2078
F0.9
sS'2008-08-26'
p2079
F0.87
sS'2012-08-29'
p2080
F0.85
sS'2012-08-28'
p2081
F0.76
sS'2008-08-27'
p2082
F0.79
sS'2012-08-21'
p2083
F0.84
sS'2012-08-20'
p2084
F0.84
sS'2012-08-23'
p2085
F0.93
sS'2012-08-22'
p2086
F0.93
sS'2012-08-25'
p2087
F0.9
sS'2012-08-24'
p2088
F0.84
sS'2012-08-27'
p2089
F0.75
sS'2008-08-21'
p2090
F0.96
sS'2014-01-15'
p2091
F0.85
sS'2014-01-14'
p2092
F0.85
sS'2014-01-17'
p2093
F0.85
sS'2014-01-16'
p2094
F0.8
sS'2014-01-11'
p2095
F0.88
sS'2014-01-10'
p2096
F0.92
sS'2014-01-13'
p2097
F0.88
sS'2014-01-12'
p2098
F0.88
sS'2014-07-21'
p2099
F0.85
sS'2014-01-19'
p2100
F0.88
sS'2014-01-18'
p2101
F0.78
sS'2015-10-28'
p2102
F0.88
sS'2012-01-01'
p2103
F0.9
sS'2012-01-02'
p2104
F0.9
sS'2012-01-03'
p2105
F0.85
sS'2012-01-04'
p2106
F0.77
sS'2012-01-05'
p2107
F0.61
sS'2012-01-06'
p2108
F0.82
sS'2012-01-07'
p2109
F0.96
sS'2012-01-08'
p2110
F0.85
sS'2008-08-28'
p2111
F0.88
sS'2008-08-29'
p2112
F0.86
sS'2014-02-28'
p2113
F0.84
sS'2014-02-25'
p2114
F0.82
sS'2014-02-24'
p2115
F0.86
sS'2014-02-27'
p2116
F0.81
sS'2014-02-26'
p2117
F0.84
sS'2014-02-21'
p2118
F0.69
sS'2012-04-04'
p2119
F0.78
sS'2014-02-23'
p2120
F0.83
sS'2013-07-24'
p2121
F0.84
sS'2012-05-07'
p2122
F0.6
sS'2015-02-18'
p2123
F0.83
sS'2006-09-30'
p2124
F0.79
sS'2008-09-01'
p2125
F0.75
sS'2009-02-18'
p2126
F0.85
sS'2009-02-19'
p2127
F0.75
sS'2012-02-29'
p2128
F0.9
sS'2012-02-28'
p2129
F0.88
sS'2009-02-12'
p2130
F0.84
sS'2009-02-13'
p2131
F0.82
sS'2009-02-10'
p2132
F0.82
sS'2009-02-11'
p2133
F0.74
sS'2009-02-16'
p2134
F0.8
sS'2009-02-17'
p2135
F0.74
sS'2009-02-14'
p2136
F0.8
sS'2009-02-15'
p2137
F0.64
sS'2012-02-16'
p2138
F0.83
sS'2013-08-30'
p2139
F0.8
sS'2012-02-14'
p2140
F0.89
sS'2012-02-15'
p2141
F0.72
sS'2015-02-13'
p2142
F0.8
sS'2012-02-12'
p2143
F0.89
sS'2015-02-12'
p2144
F0.83
sS'2012-02-13'
p2145
F0.82
sS'2009-11-23'
p2146
F0.89
sS'2012-06-29'
p2147
F0.93
sS'2012-06-28'
p2148
F0.74
sS'2012-02-10'
p2149
F0.83
sS'2014-07-01'
p2150
F0.84
sS'2012-06-23'
p2151
F0.81
sS'2012-06-22'
p2152
F0.95
sS'2012-06-21'
p2153
F0.84
sS'2012-02-11'
p2154
F0.91
sS'2012-06-27'
p2155
F0.85
sS'2012-06-26'
p2156
F0.87
sS'2012-06-25'
p2157
F0.84
sS'2012-06-24'
p2158
F0.97
sS'2014-10-01'
p2159
F0.93
sS'2014-10-02'
p2160
F0.93
sS'2012-05-02'
p2161
F0.7
sS'2014-10-04'
p2162
F0.9
sS'2014-10-05'
p2163
F0.97
sS'2014-10-06'
p2164
F0.93
sS'2014-10-07'
p2165
F0.93
sS'2014-10-08'
p2166
F0.87
sS'2014-07-04'
p2167
F0.74
sS'2012-09-30'
p2168
F0.85
sS'2015-08-13'
p2169
F0.87
sS'2010-11-07'
p2170
F0.85
sS'2015-08-11'
p2171
F0.8
sS'2015-08-10'
p2172
F0.87
sS'2015-08-17'
p2173
F0.84
sS'2014-07-06'
p2174
F0.9
sS'2015-08-15'
p2175
F0.75
sS'2010-11-06'
p2176
F0.87
sS'2015-08-19'
p2177
F0.85
sS'2014-07-07'
p2178
F0.97
sS'2010-11-05'
p2179
F0.79
sS'2013-09-18'
p2180
F0.97
sS'2010-11-04'
p2181
F0.76
sS'2013-09-12'
p2182
F0.91
sS'2010-11-03'
p2183
F0.82
sS'2013-09-10'
p2184
F0.92
sS'2013-09-11'
p2185
F0.98
sS'2013-09-16'
p2186
F0.93
sS'2013-09-17'
p2187
F0.9
sS'2013-09-14'
p2188
F0.93
sS'2010-11-02'
p2189
F0.83
sS'2010-11-01'
p2190
F0.84
sS'2014-09-08'
p2191
F0.92
sS'2014-09-09'
p2192
F0.93
sS'2014-09-06'
p2193
F0.9
sS'2014-09-07'
p2194
F0.84
sS'2014-09-04'
p2195
F0.93
sS'2009-06-22'
p2196
F0.95
sS'2014-09-02'
p2197
F0.9
sS'2014-09-03'
p2198
F0.84
sS'2014-09-01'
p2199
I1
sS'2013-03-16'
p2200
F0.79
sS'2015-10-20'
p2201
F0.93
sS'2015-07-18'
p2202
F0.85
sS'2015-07-19'
p2203
F0.84
sS'2015-07-16'
p2204
F0.93
sS'2015-07-17'
p2205
F0.92
sS'2015-07-14'
p2206
F0.8
sS'2010-11-08'
p2207
F0.76
sS'2015-07-12'
p2208
F0.85
sS'2013-03-17'
p2209
F0.82
sS'2015-07-10'
p2210
F0.87
sS'2015-07-11'
p2211
F0.87
sS'2013-03-18'
p2212
F0.72
sS'2009-09-30'
p2213
F0.72
sS'2008-04-06'
p2214
F0.72
sS'2008-04-07'
p2215
F0.51
sS'2008-04-04'
p2216
F0.64
sS'2008-04-05'
p2217
F0.73
sS'2008-04-02'
p2218
F0.56
sS'2008-04-03'
p2219
F0.63
sS'2015-03-25'
p2220
F0.82
sS'2008-04-01'
p2221
F0.68
sS'2015-03-29'
p2222
F0.89
sS'2015-03-28'
p2223
F0.84
sS'2008-04-08'
p2224
F0.59
sS'2008-04-09'
p2225
F0.64
sS'2015-04-19'
p2226
F0.66
sS'2013-03-24'
p2227
F0.87
sS'2010-08-30'
p2228
F0.88
sS'2015-04-16'
p2229
F0.84
sS'2015-04-15'
p2230
F0.65
sS'2015-04-14'
p2231
F0.8
sS'2015-04-13'
p2232
F0.84
sS'2013-03-27'
p2233
F0.87
sS'2015-04-11'
p2234
F0.68
sS'2015-04-10'
p2235
F0.71
sS'2013-03-26'
p2236
F0.61
sS'2011-09-18'
p2237
F0.81
sS'2011-09-19'
p2238
F0.84
sS'2011-09-14'
p2239
F0.97
sS'2011-09-15'
p2240
F0.97
sS'2011-09-16'
p2241
F0.91
sS'2011-09-17'
p2242
F0.97
sS'2011-09-10'
p2243
F0.9
sS'2011-09-11'
p2244
F0.89
sS'2011-09-12'
p2245
F0.79
sS'2011-09-13'
p2246
F0.91
sS'2009-05-26'
p2247
F0.71
sS'2009-05-27'
p2248
F0.66
sS'2008-08-13'
p2249
F0.93
sS'2008-08-12'
p2250
F0.97
sS'2008-08-15'
p2251
F0.98
sS'2008-08-14'
p2252
F0.94
sS'2009-05-20'
p2253
F0.75
sS'2009-05-21'
p2254
F0.74
sS'2008-08-19'
p2255
F0.74
sS'2008-08-18'
p2256
F0.74
sS'2013-03-22'
p2257
F0.77
sS'2009-05-28'
p2258
F0.64
sS'2009-05-29'
p2259
F0.51
sS'2007-07-13'
p2260
F0.58
sS'2008-03-15'
p2261
F0.73
sS'2008-03-16'
p2262
F0.65
sS'2007-07-10'
p2263
F0.76
sS'2007-07-17'
p2264
F0.71
sS'2007-07-16'
p2265
I1
sS'2007-07-15'
p2266
F0.77
sS'2008-03-13'
p2267
F0.82
sS'2007-07-19'
p2268
F0.81
sS'2007-07-18'
p2269
F0.68
sS'2008-03-18'
p2270
F0.76
sS'2008-03-19'
p2271
F0.74
sS'2008-07-07'
p2272
F0.79
sS'2008-07-06'
p2273
F0.94
sS'2008-07-05'
p2274
F0.81
sS'2008-07-04'
p2275
F0.87
sS'2008-07-03'
p2276
F0.93
sS'2008-07-02'
p2277
F0.95
sS'2008-07-01'
p2278
F0.82
sS'2008-07-09'
p2279
F0.84
sS'2008-07-08'
p2280
F0.98
sS'2007-04-01'
p2281
F0.88
sS'2007-04-03'
p2282
F0.76
sS'2007-04-02'
p2283
F0.81
sS'2007-04-05'
p2284
F0.71
sS'2007-04-04'
p2285
F0.72
sS'2007-04-07'
p2286
F0.73
sS'2007-04-06'
p2287
F0.76
sS'2007-04-09'
p2288
F0.7
sS'2007-04-08'
p2289
F0.69
sS'2014-05-26'
p2290
F0.74
sS'2014-05-27'
p2291
F0.74
sS'2014-05-20'
p2292
F0.78
sS'2014-05-21'
p2293
F0.69
sS'2014-05-22'
p2294
F0.92
sS'2014-05-23'
p2295
F0.74
sS'2007-08-18'
p2296
F0.86
sS'2007-08-19'
p2297
F0.74
sS'2007-08-16'
p2298
F0.94
sS'2007-08-17'
p2299
F0.93
sS'2007-08-14'
p2300
F0.86
sS'2007-08-15'
p2301
F0.84
sS'2007-08-12'
p2302
F0.76
sS'2007-08-13'
p2303
F0.8
sS'2007-08-10'
p2304
F0.84
sS'2007-08-11'
p2305
F0.83
sS'2015-06-29'
p2306
F0.69
sS'2006-10-30'
p2307
F0.8
sS'2014-07-19'
p2308
F0.69
sS'2013-08-12'
p2309
F0.9
sS'2010-06-08'
p2310
F0.84
sS'2014-06-09'
p2311
F0.95
sS'2014-06-08'
p2312
F0.97
sS'2012-08-18'
p2313
F0.93
sS'2012-08-19'
p2314
F0.95
sS'2012-08-14'
p2315
F0.86
sS'2012-08-15'
p2316
F0.9
sS'2012-08-16'
p2317
F0.94
sS'2012-08-17'
p2318
I1
sS'2012-08-10'
p2319
F0.93
sS'2012-08-11'
p2320
F0.93
sS'2012-08-12'
p2321
F0.93
sS'2012-08-13'
p2322
I1
sS'2013-10-10'
p2323
F0.93
sS'2013-10-11'
p2324
F0.97
sS'2013-10-15'
p2325
F0.93
sS'2009-01-22'
p2326
F0.78
sS'2009-01-23'
p2327
F0.88
sS'2009-01-20'
p2328
F0.96
sS'2009-01-21'
p2329
F0.86
sS'2009-01-26'
p2330
F0.79
sS'2009-01-27'
p2331
F0.95
sS'2009-01-24'
p2332
F0.93
sS'2009-01-25'
p2333
F0.83
sS'2009-01-28'
p2334
F0.81
sS'2009-01-29'
p2335
F0.82
sS'2012-01-19'
p2336
F0.84
sS'2012-01-18'
p2337
F0.87
sS'2014-02-10'
p2338
F0.85
sS'2013-10-18'
p2339
F0.9
sS'2014-02-12'
p2340
F0.83
sS'2014-02-13'
p2341
F0.89
sS'2014-02-14'
p2342
F0.89
sS'2014-02-15'
p2343
F0.85
sS'2014-02-16'
p2344
F0.86
sS'2013-10-19'
p2345
F0.9
sS'2014-02-18'
p2346
F0.84
sS'2014-02-19'
p2347
F0.8
sS'2011-01-30'
p2348
F0.88
sS'2012-07-23'
p2349
F0.85
sS'2012-07-25'
p2350
F0.89
sS'2006-02-02'
p2351
F0.83
sS'2006-02-03'
p2352
F0.71
sS'2006-02-01'
p2353
F0.81
sS'2006-02-06'
p2354
F0.83
sS'2006-02-07'
p2355
F0.72
sS'2006-02-04'
p2356
F0.77
sS'2006-02-05'
p2357
F0.82
sS'2006-02-08'
p2358
F0.81
sS'2006-02-09'
p2359
F0.82
sS'2006-09-21'
p2360
F0.82
sS'2006-09-20'
p2361
F0.94
sS'2006-09-23'
p2362
F0.78
sS'2006-09-22'
p2363
F0.85
sS'2006-09-25'
p2364
F0.86
sS'2006-09-24'
p2365
I1
sS'2006-09-27'
p2366
F0.8
sS'2006-09-26'
p2367
F0.8
sS'2006-09-29'
p2368
F0.8
sS'2006-09-28'
p2369
F0.81
sS'2009-02-09'
p2370
F0.83
sS'2009-02-08'
p2371
F0.82
sS'2014-11-08'
p2372
F0.92
sS'2009-02-01'
p2373
F0.89
sS'2014-01-21'
p2374
F0.89
sS'2009-02-03'
p2375
F0.8
sS'2009-02-02'
p2376
F0.89
sS'2009-02-05'
p2377
F0.75
sS'2009-02-04'
p2378
F0.75
sS'2009-02-07'
p2379
F0.78
sS'2009-02-06'
p2380
F0.71
sS'2006-06-08'
p2381
F0.85
sS'2006-06-09'
p2382
F0.91
sS'2006-06-06'
p2383
F0.87
sS'2006-06-07'
p2384
F0.87
sS'2006-06-04'
p2385
F0.85
sS'2006-06-05'
p2386
F0.88
sS'2006-06-02'
p2387
F0.87
sS'2006-06-03'
p2388
F0.89
sS'2006-06-01'
p2389
F0.98
sS'2010-06-30'
p2390
F0.94
sS'2009-04-03'
p2391
F0.57
sS'2009-04-02'
p2392
F0.75
sS'2009-04-01'
p2393
F0.77
sS'2014-11-06'
p2394
F0.91
sS'2014-10-17'
p2395
F0.87
sS'2014-10-16'
p2396
F0.79
sS'2013-02-28'
p2397
F0.82
sS'2014-10-14'
p2398
F0.9
sS'2014-10-13'
p2399
F0.9
sS'2014-10-12'
p2400
F0.9
sS'2014-10-11'
p2401
F0.87
sS'2014-10-10'
p2402
F0.84
sS'2013-02-22'
p2403
F0.72
sS'2009-04-07'
p2404
F0.79
sS'2013-02-20'
p2405
F0.8
sS'2013-02-21'
p2406
F0.84
sS'2013-02-26'
p2407
F0.73
sS'2013-02-27'
p2408
F0.89
sS'2013-02-24'
p2409
F0.81
sS'2009-04-06'
p2410
F0.61
sS'2007-10-22'
p2411
I1
sS'2007-10-23'
p2412
F0.8
sS'2007-10-20'
p2413
F0.94
sS'2007-10-21'
p2414
F0.84
sS'2007-10-26'
p2415
F0.87
sS'2006-08-28'
p2416
F0.82
sS'2007-10-24'
p2417
F0.82
sS'2007-10-25'
p2418
F0.84
sS'2007-10-28'
p2419
F0.76
sS'2007-10-29'
p2420
F0.9
sS'2007-06-18'
p2421
F0.69
sS'2013-09-09'
p2422
F0.89
sS'2013-09-08'
p2423
F0.97
sS'2013-09-01'
p2424
I1
sS'2013-09-03'
p2425
F0.84
sS'2013-09-02'
p2426
F0.9
sS'2013-09-05'
p2427
F0.79
sS'2009-04-09'
p2428
F0.75
sS'2013-09-07'
p2429
F0.93
sS'2013-09-06'
p2430
I1
sS'2009-04-08'
p2431
F0.72
sS'2014-09-19'
p2432
F0.91
sS'2014-09-18'
p2433
F0.9
sS'2014-09-15'
p2434
F0.97
sS'2014-09-14'
p2435
F0.9
sS'2014-09-17'
p2436
F0.93
sS'2014-09-16'
p2437
F0.93
sS'2007-06-19'
p2438
F0.89
sS'2013-02-11'
p2439
F0.73
sS'2014-09-13'
p2440
I1
sS'2014-09-12'
p2441
F0.93
sS'2010-02-28'
p2442
F0.65
sS'2013-02-10'
p2443
F0.82
sS'2006-08-20'
p2444
F0.76
sS'2010-02-21'
p2445
F0.75
sS'2010-02-20'
p2446
F0.86
sS'2010-02-23'
p2447
F0.56
sS'2006-08-21'
p2448
F0.97
sS'2010-02-25'
p2449
F0.78
sS'2010-02-24'
p2450
F0.64
sS'2010-02-27'
p2451
F0.71
sS'2010-02-26'
p2452
F0.83
sS'2014-06-03'
p2453
F0.9
sS'2015-07-09'
p2454
F0.93
sS'2015-07-08'
p2455
F0.75
sS'2015-07-05'
p2456
F0.9
sS'2015-07-04'
p2457
F0.93
sS'2015-07-07'
p2458
F0.93
sS'2015-07-06'
p2459
F0.9
sS'2015-07-01'
p2460
F0.8
sS'2013-02-19'
p2461
F0.81
sS'2015-07-03'
p2462
F0.74
sS'2015-07-02'
p2463
F0.82
sS'2014-06-02'
p2464
F0.93
sS'2015-06-14'
p2465
F0.86
sS'2014-06-01'
p2466
F0.79
sS'2009-09-08'
p2467
F0.8
sS'2009-09-09'
p2468
I1
sS'2007-03-28'
p2469
F0.77
sS'2007-03-29'
p2470
F0.79
sS'2007-03-26'
p2471
F0.63
sS'2007-03-27'
p2472
F0.79
sS'2007-03-24'
p2473
F0.76
sS'2007-03-25'
p2474
F0.72
sS'2007-03-22'
p2475
F0.67
sS'2007-03-23'
p2476
F0.8
sS'2007-03-20'
p2477
F0.86
sS'2007-03-21'
p2478
F0.81
sS'2008-04-15'
p2479
F0.79
sS'2008-04-14'
p2480
F0.73
sS'2008-04-17'
p2481
F0.75
sS'2008-04-16'
p2482
F0.73
sS'2008-04-11'
p2483
F0.65
sS'2008-04-10'
p2484
F0.53
sS'2008-04-13'
p2485
F0.64
sS'2008-04-12'
p2486
F0.43
sS'2008-04-19'
p2487
F0.55
sS'2008-04-18'
p2488
F0.6
sS'2010-10-28'
p2489
F0.97
sS'2010-10-29'
p2490
F0.77
sS'2010-08-29'
p2491
F0.96
sS'2010-08-28'
p2492
F0.84
sS'2010-08-27'
p2493
F0.93
sS'2010-08-26'
p2494
F0.91
sS'2010-08-25'
p2495
F0.93
sS'2010-08-24'
p2496
F0.9
sS'2010-08-23'
p2497
F0.83
sS'2010-08-22'
p2498
F0.98
sS'2010-08-21'
p2499
F0.87
sS'2010-08-20'
p2500
I1
sS'2011-09-03'
p2501
F0.84
sS'2011-09-02'
p2502
F0.97
sS'2011-09-01'
p2503
F0.95
sS'2011-09-07'
p2504
F0.97
sS'2011-09-06'
p2505
F0.91
sS'2011-09-05'
p2506
F0.93
sS'2011-09-04'
p2507
F0.71
sS'2011-09-09'
p2508
F0.86
sS'2011-09-08'
p2509
F0.87
sS'2008-08-24'
p2510
F0.81
sS'2008-08-25'
p2511
F0.92
sS'2008-03-09'
p2512
F0.84
sS'2008-03-08'
p2513
F0.78
sS'2008-08-20'
p2514
F0.8
sS'2009-05-30'
p2515
F0.7
sS'2008-08-22'
p2516
F0.93
sS'2008-08-23'
p2517
F0.85
sS'2008-03-03'
p2518
F0.85
sS'2008-03-02'
p2519
F0.77
sS'2008-03-01'
p2520
F0.78
sS'2015-06-19'
p2521
F0.84
sS'2008-03-07'
p2522
F0.66
sS'2008-03-06'
p2523
F0.68
sS'2008-03-05'
p2524
F0.79
sS'2008-03-04'
p2525
F0.73
sS'2013-10-03'
p2526
F0.87
sS'2015-06-18'
p2527
F0.85
sS'2015-03-30'
p2528
F0.83
sS'2013-03-21'
p2529
F0.8
sS'2014-05-30'
p2530
F0.9
sS'2007-04-30'
p2531
F0.79
sS'2007-08-09'
p2532
F0.88
sS'2007-08-08'
p2533
F0.93
sS'2007-08-05'
p2534
F0.75
sS'2007-08-04'
p2535
F0.84
sS'2007-08-07'
p2536
F0.97
sS'2007-08-06'
p2537
F0.94
sS'2007-08-01'
p2538
F0.84
sS'2007-08-03'
p2539
F0.7
sS'2007-08-02'
p2540
F0.82
sS'2006-10-23'
p2541
F0.77
sS'2006-10-22'
p2542
F0.79
sS'2006-10-21'
p2543
F0.83
sS'2006-10-20'
p2544
F0.94
sS'2006-10-27'
p2545
F0.86
sS'2006-10-26'
p2546
F0.84
sS'2006-10-25'
p2547
F0.91
sS'2006-10-24'
p2548
F0.89
sS'2006-10-29'
p2549
F0.83
sS'2006-10-28'
p2550
F0.79
sS'2014-08-18'
p2551
F0.79
sS'2008-11-28'
p2552
F0.85
sS'2008-11-29'
p2553
F0.89
sS'2008-11-26'
p2554
F0.81
sS'2008-11-27'
p2555
F0.87
sS'2008-11-24'
p2556
F0.88
sS'2008-11-25'
p2557
F0.86
sS'2008-11-22'
p2558
F0.89
sS'2008-11-23'
p2559
F0.78
sS'2008-11-20'
p2560
F0.75
sS'2008-11-21'
p2561
F0.73
sS'2013-09-15'
p2562
F0.93
sS'2012-08-03'
p2563
F0.85
sS'2012-08-02'
p2564
F0.87
sS'2012-08-01'
p2565
F0.87
sS'2013-06-13'
p2566
F0.85
sS'2012-08-07'
p2567
F0.74
sS'2012-08-06'
p2568
F0.88
sS'2012-08-05'
p2569
F0.93
sS'2012-08-04'
p2570
F0.98
sS'2012-08-09'
p2571
F0.96
sS'2012-08-08'
p2572
F0.69
sS'2014-08-10'
p2573
F0.83
sS'2013-08-01'
p2574
F0.84
sS'2009-01-30'
p2575
F0.78
sS'2011-05-11'
p2576
F0.6
sS'2014-02-07'
p2577
F0.91
sS'2014-02-06'
p2578
F0.82
sS'2014-02-05'
p2579
F0.83
sS'2014-02-04'
p2580
F0.83
sS'2014-02-03'
p2581
F0.82
sS'2014-02-02'
p2582
F0.96
sS'2014-02-01'
p2583
F0.84
sS'2014-02-09'
p2584
F0.86
sS'2014-02-08'
p2585
F0.84
sS'2011-01-21'
p2586
F0.7
sS'2011-01-20'
p2587
F0.88
sS'2011-01-23'
p2588
F0.89
sS'2011-01-22'
p2589
F0.93
sS'2011-01-25'
p2590
I1
sS'2011-01-24'
p2591
F0.79
sS'2011-01-27'
p2592
F0.87
sS'2011-01-26'
p2593
F0.83
sS'2011-01-29'
p2594
F0.93
sS'2011-01-28'
p2595
F0.87
sS'2006-02-11'
p2596
F0.78
sS'2006-02-10'
p2597
F0.84
sS'2006-02-13'
p2598
F0.88
sS'2006-02-12'
p2599
F0.83
sS'2006-02-15'
p2600
F0.82
sS'2006-02-14'
p2601
F0.75
sS'2006-02-17'
p2602
F0.86
sS'2006-02-16'
p2603
F0.8
sS'2006-02-19'
p2604
F0.73
sS'2006-02-18'
p2605
F0.78
sS'2006-09-14'
p2606
F0.85
sS'2006-09-15'
p2607
F0.86
sS'2006-09-16'
p2608
F0.97
sS'2006-09-17'
p2609
F0.84
sS'2006-09-10'
p2610
F0.84
sS'2006-09-11'
p2611
F0.8
sS'2006-09-12'
p2612
F0.93
sS'2006-09-13'
p2613
F0.97
sS'2011-02-02'
p2614
F0.81
sS'2011-02-03'
p2615
F0.7
sS'2011-02-01'
p2616
F0.69
sS'2006-09-18'
p2617
F0.89
sS'2006-09-19'
p2618
F0.95
sS'2011-02-04'
p2619
F0.75
sS'2011-02-05'
p2620
F0.85
sS'2014-01-30'
p2621
F0.87
sS'2006-06-19'
p2622
F0.84
sS'2006-06-18'
p2623
F0.84
sS'2015-10-16'
p2624
F0.77
sS'2006-06-15'
p2625
F0.83
sS'2006-06-14'
p2626
F0.81
sS'2006-06-17'
p2627
F0.83
sS'2006-06-16'
p2628
F0.85
sS'2006-06-11'
p2629
F0.81
sS'2006-06-10'
p2630
F0.83
sS'2006-06-13'
p2631
F0.84
sS'2006-06-12'
p2632
F0.81
sS'2010-06-25'
p2633
F0.79
sS'2010-06-24'
p2634
F0.88
sS'2010-06-27'
p2635
F0.81
sS'2010-06-26'
p2636
F0.74
sS'2010-06-21'
p2637
F0.86
sS'2010-06-20'
p2638
F0.74
sS'2010-06-23'
p2639
F0.94
sS'2010-06-22'
p2640
F0.94
sS'2010-06-29'
p2641
I1
sS'2010-06-28'
p2642
I1
sS'2014-07-05'
p2643
F0.87
sS'2014-11-27'
p2644
F0.86
sS'2015-01-03'
p2645
F0.87
sS'2015-01-02'
p2646
F0.93
sS'2014-11-29'
p2647
F0.88
sS'2012-05-21'
p2648
F0.69
sS'2015-01-09'
p2649
F0.87
sS'2011-06-06'
p2650
F0.68
sS'2007-10-30'
p2651
F0.84
sS'2011-06-04'
p2652
F0.67
sS'2011-06-05'
p2653
F0.75
sS'2011-06-02'
p2654
F0.64
sS'2011-06-03'
p2655
F0.71
sS'2011-06-01'
p2656
F0.68
sS'2013-06-02'
p2657
F0.79
sS'2011-06-08'
p2658
F0.65
sS'2011-06-09'
p2659
F0.71
sS'2013-06-03'
p2660
F0.83
sS'2015-08-24'
p2661
F0.74
sS'2007-07-08'
p2662
F0.79
sS'2015-01-08'
p2663
F0.91
sS'2015-08-25'
p2664
F0.73
sS'2013-09-30'
p2665
F0.97
sS'2007-07-09'
p2666
F0.77
sS'2014-09-20'
p2667
F0.93
sS'2014-09-21'
p2668
F0.85
sS'2014-09-22'
p2669
F0.93
sS'2014-09-23'
p2670
F0.93
sS'2014-09-24'
p2671
F0.79
sS'2013-06-06'
p2672
F0.93
sS'2014-09-26'
p2673
F0.79
sS'2014-09-27'
p2674
F0.9
sS'2014-09-28'
p2675
F0.97
sS'2014-09-29'
p2676
F0.93
sS'2013-06-07'
p2677
I1
sS'2007-07-04'
p2678
F0.78
sS'2010-02-18'
p2679
F0.84
sS'2010-02-19'
p2680
F0.84
sS'2007-07-05'
p2681
F0.88
sS'2010-02-14'
p2682
F0.84
sS'2010-02-15'
p2683
F0.86
sS'2010-02-16'
p2684
F0.85
sS'2010-02-17'
p2685
F0.84
sS'2010-02-10'
p2686
F0.81
sS'2010-02-11'
p2687
F0.89
sS'2010-02-12'
p2688
F0.8
sS'2010-02-13'
p2689
F0.84
sS'2015-07-30'
p2690
F0.69
sS'2008-06-08'
p2691
F0.99
sS'2015-06-01'
p2692
F0.81
sS'2009-10-08'
p2693
F0.83
sS'2009-10-09'
p2694
F0.84
sS'2009-10-06'
p2695
F0.75
sS'2009-10-07'
p2696
F0.78
sS'2009-10-04'
p2697
F0.84
sS'2009-10-05'
p2698
F0.77
sS'2009-10-02'
p2699
F0.85
sS'2009-10-03'
p2700
F0.78
sS'2009-10-01'
p2701
F0.9
sS'2014-07-28'
p2702
F0.93
sS'2014-07-29'
p2703
F0.84
sS'2008-04-28'
p2704
F0.46
sS'2008-04-29'
p2705
F0.71
sS'2009-09-11'
p2706
F0.76
sS'2009-09-10'
p2707
F0.82
sS'2009-09-17'
p2708
F0.78
sS'2009-09-16'
p2709
F0.74
sS'2009-09-15'
p2710
F0.74
sS'2009-09-14'
p2711
F0.82
sS'2008-04-20'
p2712
F0.72
sS'2008-04-21'
p2713
F0.63
sS'2009-09-19'
p2714
F0.94
sS'2008-04-23'
p2715
F0.71
sS'2008-04-24'
p2716
F0.67
sS'2008-04-25'
p2717
F0.6
sS'2008-04-26'
p2718
F0.59
sS'2008-04-27'
p2719
F0.61
sS'2009-11-02'
p2720
F0.91
sS'2008-09-12'
p2721
F0.83
sS'2009-11-04'
p2722
F0.9
sS'2010-11-25'
p2723
F0.89
sS'2008-09-10'
p2724
F0.88
sS'2010-11-24'
p2725
F0.79
sS'2010-10-30'
p2726
F0.79
sS'2009-11-06'
p2727
F0.76
sS'2010-11-27'
p2728
F0.78
sS'2009-05-08'
p2729
F0.7
sS'2009-05-09'
p2730
F0.81
sS'2012-11-14'
p2731
F0.87
sS'2010-11-26'
p2732
F0.78
sS'2012-11-12'
p2733
F0.86
sS'2012-11-13'
p2734
F0.85
sS'2012-11-10'
p2735
F0.81
sS'2012-11-11'
p2736
F0.93
sS'2009-05-01'
p2737
F0.79
sS'2009-05-02'
p2738
F0.77
sS'2008-08-30'
p2739
F0.9
sS'2009-05-04'
p2740
F0.64
sS'2009-05-05'
p2741
F0.66
sS'2009-05-06'
p2742
F0.58
sS'2009-05-07'
p2743
F0.64
sS'2010-11-23'
p2744
F0.83
sS'2010-11-22'
p2745
F0.82
sS'2011-06-28'
p2746
F0.92
sS'2009-06-18'
p2747
F0.9
sS'2009-06-19'
p2748
F0.93
sS'2009-06-16'
p2749
F0.86
sS'2009-06-17'
p2750
F0.65
sS'2009-06-14'
p2751
F0.87
sS'2009-06-15'
p2752
F0.82
sS'2009-06-12'
p2753
F0.74
sS'2009-06-13'
p2754
F0.7
sS'2009-06-10'
p2755
F0.71
sS'2009-06-11'
p2756
F0.9
sS'2007-10-18'
p2757
F0.9
sS'2013-07-04'
p2758
F0.84
sS'2013-06-04'
p2759
F0.97
sS'2015-05-30'
p2760
F0.71
sS'2011-02-08'
p2761
F0.84
sS'2009-10-28'
p2762
F0.82
sS'2007-04-29'
p2763
F0.75
sS'2007-04-28'
p2764
F0.79
sS'2009-10-29'
p2765
F0.9
sS'2007-04-23'
p2766
F0.73
sS'2007-04-22'
p2767
F0.67
sS'2007-04-21'
p2768
F0.72
sS'2007-04-20'
p2769
F0.78
sS'2007-04-27'
p2770
F0.59
sS'2007-04-26'
p2771
F0.56
sS'2007-04-25'
p2772
F0.53
sS'2007-04-24'
p2773
F0.66
sS'2011-06-23'
p2774
F0.85
sS'2011-06-24'
p2775
F0.92
sS'2011-06-25'
p2776
F0.85
sS'2007-08-30'
p2777
I1
sS'2013-04-30'
p2778
F0.63
sS'2011-06-26'
p2779
F0.82
sS'2011-06-27'
p2780
F0.92
sS'2011-02-06'
p2781
F0.92
sS'2011-10-10'
p2782
F0.89
sS'2011-02-07'
p2783
F0.62
sS'2011-10-11'
p2784
F0.9
sS'2008-11-30'
p2785
F0.76
sS'2015-06-09'
p2786
F0.64
sS'2010-03-22'
p2787
F0.89
sS'2011-10-18'
p2788
F0.93
sS'2010-03-23'
p2789
F0.74
sS'2014-05-19'
p2790
F0.69
sS'2011-10-19'
p2791
F0.81
sS'2014-05-18'
p2792
F0.73
sS'2009-01-04'
p2793
F0.91
sS'2009-01-05'
p2794
F0.74
sS'2009-01-06'
p2795
F0.84
sS'2009-01-07'
p2796
F0.63
sS'2009-01-01'
p2797
F0.82
sS'2009-01-02'
p2798
F0.89
sS'2009-01-03'
p2799
F0.76
sS'2009-01-08'
p2800
F0.8
sS'2009-01-09'
p2801
F0.74
sS'2010-03-28'
p2802
F0.66
sS'2010-03-29'
p2803
F0.9
sS'2014-05-13'
p2804
F0.9
sS'2013-06-05'
p2805
F0.93
sS'2011-01-14'
p2806
F0.93
sS'2011-01-15'
p2807
F0.85
sS'2006-02-26'
p2808
F0.83
sS'2011-01-17'
p2809
F0.85
sS'2011-01-10'
p2810
F0.85
sS'2011-01-11'
p2811
F0.92
sS'2011-01-12'
p2812
F0.88
sS'2011-01-13'
p2813
F0.92
sS'2011-01-18'
p2814
F0.82
sS'2011-01-19'
p2815
F0.87
sS'2006-02-24'
p2816
F0.72
sS'2006-02-25'
p2817
F0.83
sS'2006-09-09'
p2818
F0.82
sS'2006-09-08'
p2819
F0.87
sS'2006-02-20'
p2820
F0.76
sS'2006-02-21'
p2821
F0.81
sS'2006-02-22'
p2822
F0.82
sS'2006-02-23'
p2823
F0.68
sS'2006-09-03'
p2824
I1
sS'2006-09-02'
p2825
F0.84
sS'2006-09-01'
p2826
F0.88
sS'2006-09-07'
p2827
F0.8
sS'2006-09-06'
p2828
F0.83
sS'2006-09-05'
p2829
F0.9
sS'2006-09-04'
p2830
F0.93
sS'2011-02-19'
p2831
F0.82
sS'2011-02-18'
p2832
F0.9
sS'2011-02-11'
p2833
F0.85
sS'2011-02-10'
p2834
F0.77
sS'2011-02-13'
p2835
F0.87
sS'2011-02-12'
p2836
F0.76
sS'2011-02-15'
p2837
F0.91
sS'2011-02-14'
p2838
F0.85
sS'2011-02-17'
p2839
F0.86
sS'2011-02-16'
p2840
F0.8
sS'2009-02-23'
p2841
F0.79
sS'2009-02-22'
p2842
F0.78
sS'2009-02-21'
p2843
F0.67
sS'2009-02-20'
p2844
F0.73
sS'2009-02-27'
p2845
F0.83
sS'2009-02-26'
p2846
F0.8
sS'2009-02-25'
p2847
F0.81
sS'2009-02-24'
p2848
F0.82
sS'2009-02-28'
p2849
F0.93
sS'2006-06-20'
p2850
F0.83
sS'2006-06-21'
p2851
F0.86
sS'2006-06-22'
p2852
F0.85
sS'2006-06-23'
p2853
F0.81
sS'2006-06-24'
p2854
F0.89
sS'2006-06-25'
p2855
F0.84
sS'2006-06-26'
p2856
F0.82
sS'2006-06-27'
p2857
F0.87
sS'2006-06-28'
p2858
F0.82
sS'2006-06-29'
p2859
F0.92
sS'2010-06-12'
p2860
I1
sS'2010-06-13'
p2861
I1
sS'2010-06-14'
p2862
I1
sS'2010-06-15'
p2863
F0.97
sS'2010-06-16'
p2864
I1
sS'2010-06-17'
p2865
F0.98
sS'2013-06-08'
p2866
F0.93
sS'2013-03-19'
p2867
F0.72
sS'2015-10-22'
p2868
F0.95
sS'2013-02-08'
p2869
F0.76
sS'2013-02-09'
p2870
F0.71
sS'2013-06-09'
p2871
F0.93
sS'2013-02-04'
p2872
F0.86
sS'2013-02-05'
p2873
F0.9
sS'2013-02-06'
p2874
F0.9
sS'2013-02-07'
p2875
F0.85
sS'2013-02-01'
p2876
F0.91
sS'2013-02-02'
p2877
F0.88
sS'2013-02-03'
p2878
F0.89
sS'2007-10-04'
p2879
F0.79
sS'2007-10-05'
p2880
F0.78
sS'2007-10-06'
p2881
F0.69
sS'2007-10-07'
p2882
F0.75
sS'2011-06-11'
p2883
F0.75
sS'2007-10-01'
p2884
F0.84
sS'2007-10-02'
p2885
F0.69
sS'2007-10-03'
p2886
F0.78
sS'2007-10-08'
p2887
F0.69
sS'2007-10-09'
p2888
F0.75
sS'2013-09-23'
p2889
F0.97
sS'2013-09-22'
p2890
F0.86
sS'2013-09-21'
p2891
F0.79
sS'2013-09-20'
p2892
F0.97
sS'2013-09-27'
p2893
F0.94
sS'2013-09-26'
p2894
F0.93
sS'2013-09-25'
p2895
I1
sS'2013-09-24'
p2896
I1
sS'2013-09-29'
p2897
F0.97
sS'2013-09-28'
p2898
F0.9
sS'2012-07-06'
p2899
F0.9
sS'2012-07-07'
p2900
F0.93
sS'2012-07-04'
p2901
F0.9
sS'2010-02-03'
p2902
F0.78
sS'2010-02-02'
p2903
F0.86
sS'2010-02-01'
p2904
F0.91
sS'2012-07-05'
p2905
F0.89
sS'2010-02-07'
p2906
F0.9
sS'2010-02-06'
p2907
F0.9
sS'2010-02-05'
p2908
F0.79
sS'2010-02-04'
p2909
F0.89
sS'2011-05-25'
p2910
F0.65
sS'2011-05-24'
p2911
F0.85
sS'2010-02-09'
p2912
F0.77
sS'2010-02-08'
p2913
F0.84
sS'2011-05-21'
p2914
F0.72
sS'2011-05-20'
p2915
F0.66
sS'2011-05-23'
p2916
F0.88
sS'2011-05-22'
p2917
F0.63
sS'2014-11-30'
p2918
F0.9
sS'2012-07-01'
p2919
F0.93
sS'2015-07-27'
p2920
F0.84
sS'2015-07-26'
p2921
F0.86
sS'2015-07-25'
p2922
F0.93
sS'2015-07-24'
p2923
F0.84
sS'2015-07-23'
p2924
F0.97
sS'2015-07-22'
p2925
F0.83
sS'2015-07-21'
p2926
F0.93
sS'2015-07-20'
p2927
F0.89
sS'2015-07-29'
p2928
F0.77
sS'2015-07-28'
p2929
F0.76
sS'2012-05-18'
p2930
F0.69
sS'2012-04-30'
p2931
F0.37
sS'2009-10-19'
p2932
F0.75
sS'2009-10-18'
p2933
F0.86
sS'2009-10-15'
p2934
F0.77
sS'2009-10-14'
p2935
F0.74
sS'2009-10-17'
p2936
F0.9
sS'2009-10-16'
p2937
I1
sS'2009-10-11'
p2938
F0.95
sS'2009-10-10'
p2939
F0.92
sS'2009-10-13'
p2940
F0.8
sS'2009-10-12'
p2941
F0.9
sS'2006-05-25'
p2942
F0.83
sS'2011-08-23'
p2943
I1
sS'2009-07-25'
p2944
F0.89
sS'2015-11-27'
p2945
F0.86
sS'2006-05-27'
p2946
F0.88
sS'2007-06-25'
p2947
F0.96
sS'2007-03-02'
p2948
F0.88
sS'2007-03-03'
p2949
F0.88
sS'2007-03-04'
p2950
F0.82
sS'2007-03-05'
p2951
F0.85
sS'2007-03-06'
p2952
F0.84
sS'2007-06-24'
p2953
F0.97
sS'2007-03-08'
p2954
F0.84
sS'2006-05-21'
p2955
F0.89
sS'2007-06-27'
p2956
F0.81
sS'2006-05-20'
p2957
F0.72
sS'2009-04-22'
p2958
F0.71
sS'2009-07-22'
p2959
F0.71
sS'2009-04-25'
p2960
F0.73
sS'2006-05-22'
p2961
F0.84
sS'2007-06-20'
p2962
F0.72
sS'2010-10-08'
p2963
F0.73
sS'2009-04-27'
p2964
F0.67
sS'2010-10-04'
p2965
F0.83
sS'2010-10-05'
p2966
F0.8
sS'2010-10-06'
p2967
F0.81
sS'2009-04-26'
p2968
F0.77
sS'2010-10-01'
p2969
F0.76
sS'2010-10-02'
p2970
F0.79
sS'2010-10-03'
p2971
F0.87
sS'2012-11-05'
p2972
F0.86
sS'2012-11-04'
p2973
F0.93
sS'2012-11-07'
p2974
F0.82
sS'2012-11-06'
p2975
F0.79
sS'2012-11-01'
p2976
F0.8
sS'2009-05-19'
p2977
F0.72
sS'2009-05-18'
p2978
F0.79
sS'2009-05-17'
p2979
F0.68
sS'2009-05-16'
p2980
F0.69
sS'2009-05-15'
p2981
F0.79
sS'2009-05-14'
p2982
F0.97
sS'2009-05-13'
p2983
F0.86
sS'2009-05-12'
p2984
F0.97
sS'2009-05-11'
p2985
F0.87
sS'2006-05-28'
p2986
F0.81
sS'2015-03-20'
p2987
F0.77
sS'2008-06-28'
p2988
F0.84
sS'2008-06-29'
p2989
F0.95
sS'2009-06-09'
p2990
F0.83
sS'2009-06-08'
p2991
F0.75
sS'2012-07-13'
p2992
F0.9
sS'2009-06-05'
p2993
F0.72
sS'2008-06-23'
p2994
F0.64
sS'2009-06-07'
p2995
F0.64
sS'2009-06-06'
p2996
F0.65
sS'2009-06-01'
p2997
F0.6
sS'2008-06-27'
p2998
F0.97
sS'2009-06-03'
p2999
F0.84
sS'2009-06-02'
p3000
F0.77
sS'2015-03-27'
p3001
F0.79
sS'2013-05-16'
p3002
F0.6
sS'2013-05-17'
p3003
F0.75
sS'2013-05-14'
p3004
F0.62
sS'2013-05-15'
p3005
F0.58
sS'2013-05-12'
p3006
F0.51
sS'2012-07-12'
p3007
F0.93
sS'2013-05-10'
p3008
F0.54
sS'2011-06-07'
p3009
F0.71
sS'2015-05-21'
p3010
F0.93
sS'2015-05-20'
p3011
F0.83
sS'2015-05-23'
p3012
F0.65
sS'2015-05-22'
p3013
F0.72
sS'2015-05-25'
p3014
F0.93
sS'2015-05-24'
p3015
F0.94
sS'2013-05-18'
p3016
F0.49
sS'2013-05-19'
p3017
F0.66
sS'2015-01-30'
p3018
F0.84
sS'2007-08-27'
p3019
F0.93
sS'2007-08-26'
p3020
F0.88
sS'2007-08-25'
p3021
F0.84
sS'2007-08-24'
p3022
F0.98
sS'2007-08-23'
p3023
F0.9
sS'2007-08-22'
p3024
F0.87
sS'2007-08-21'
p3025
F0.88
sS'2007-08-20'
p3026
F0.71
sS'2015-01-17'
p3027
F0.9
sS'2007-05-30'
p3028
F0.87
sS'2007-08-29'
p3029
F0.87
sS'2007-08-28'
p3030
F0.93
sS'2014-08-27'
p3031
F0.74
sS'2008-11-01'
p3032
F0.84
sS'2008-11-02'
p3033
F0.78
sS'2008-11-03'
p3034
F0.84
sS'2008-11-04'
p3035
F0.81
sS'2008-11-05'
p3036
F0.87
sS'2008-11-06'
p3037
F0.9
sS'2008-11-07'
p3038
F0.87
sS'2008-11-08'
p3039
F0.89
sS'2008-11-09'
p3040
F0.83
sS'2015-11-01'
p3041
F0.82
sS'2015-11-06'
p3042
F0.9
sS'2015-11-07'
p3043
F0.89
sS'2015-11-04'
p3044
F0.95
sS'2015-11-05'
p3045
F0.84
sS'2012-08-26'
p3046
F0.79
sS'2015-03-11'
p3047
F0.83
sS'2015-09-13'
p3048
F0.84
sS'2015-03-17'
p3049
F0.85
sS'2009-01-19'
p3050
F0.86
sS'2009-01-18'
p3051
F0.79
sS'2009-01-13'
p3052
F0.86
sS'2009-01-12'
p3053
F0.83
sS'2009-01-11'
p3054
F0.82
sS'2009-01-10'
p3055
F0.87
sS'2009-01-17'
p3056
F0.8
sS'2009-01-16'
p3057
F0.85
sS'2009-01-15'
p3058
F0.87
sS'2009-01-14'
p3059
F0.83
sS'2015-10-11'
p3060
F0.8
sS'2007-09-28'
p3061
F0.84
sS'2013-01-12'
p3062
I1
sS'2013-01-13'
p3063
I1
sS'2013-01-10'
p3064
F0.83
sS'2013-01-11'
p3065
F0.88
sS'2013-01-16'
p3066
F0.9
sS'2013-01-17'
p3067
F0.94
sS'2013-01-14'
p3068
F0.96
sS'2013-01-15'
p3069
F0.89
sS'2013-01-18'
p3070
F0.78
sS'2013-01-19'
p3071
F0.91
sS'2015-02-20'
p3072
F0.89
sS'2014-03-28'
p3073
F0.7
sS'2014-03-29'
p3074
F0.77
sS'2014-03-22'
p3075
F0.81
sS'2014-03-23'
p3076
F0.76
sS'2014-03-20'
p3077
F0.83
sS'2014-03-21'
p3078
F0.84
sS'2014-03-26'
p3079
F0.83
sS'2014-03-27'
p3080
F0.82
sS'2014-03-24'
p3081
F0.84
sS'2014-03-25'
p3082
F0.79
sS'2014-09-25'
p3083
F0.84
sS'2011-02-28'
p3084
F0.7
sS'2011-02-24'
p3085
I1
sS'2011-02-25'
p3086
F0.68
sS'2011-02-26'
p3087
F0.81
sS'2011-02-27'
p3088
F0.92
sS'2011-02-20'
p3089
F0.83
sS'2011-02-21'
p3090
F0.9
sS'2011-02-22'
p3091
F0.77
sS'2011-02-23'
p3092
F0.73
sS'2013-04-28'
p3093
F0.68
sS'2012-01-09'
p3094
F0.96
sS'2015-10-05'
p3095
F0.82
sS'2010-06-09'
p3096
F0.95
sS'2006-06-30'
p3097
F0.82
sS'2010-06-07'
p3098
F0.68
sS'2010-06-06'
p3099
F0.74
sS'2010-06-05'
p3100
F0.91
sS'2010-06-04'
p3101
F0.56
sS'2010-06-03'
p3102
F0.69
sS'2010-06-02'
p3103
F0.63
sS'2010-06-01'
p3104
F0.59
sS'2012-03-08'
p3105
F0.86
sS'2012-03-09'
p3106
F0.82
sS'2012-03-02'
p3107
F0.79
sS'2012-03-03'
p3108
F0.93
sS'2012-03-01'
p3109
F0.8
sS'2012-03-06'
p3110
F0.86
sS'2012-03-07'
p3111
F0.86
sS'2012-03-04'
p3112
F0.76
sS'2012-03-05'
p3113
F0.81
sS'2015-10-03'
p3114
F0.73
sS'2015-10-02'
p3115
F0.79
sS'2013-02-13'
p3116
F0.75
sS'2013-02-12'
p3117
F0.74
sS'2011-01-09'
p3118
F0.89
sS'2011-01-08'
p3119
F0.89
sS'2013-02-17'
p3120
F0.75
sS'2013-02-16'
p3121
F0.84
sS'2013-02-15'
p3122
F0.87
sS'2013-02-14'
p3123
F0.83
sS'2011-01-03'
p3124
F0.93
sS'2011-01-02'
p3125
F0.93
sS'2011-01-01'
p3126
F0.93
sS'2013-02-18'
p3127
F0.81
sS'2011-01-07'
p3128
F0.92
sS'2011-01-06'
p3129
F0.94
sS'2011-01-05'
p3130
F0.87
sS'2011-01-04'
p3131
F0.86
sS'2015-05-10'
p3132
F0.66
sS'2015-05-11'
p3133
F0.73
sS'2015-02-21'
p3134
F0.85
sS'2012-11-24'
p3135
F0.82
sS'2014-08-19'
p3136
F0.79
sS'2014-08-12'
p3137
F0.97
sS'2014-08-13'
p3138
F0.93
sS'2011-06-15'
p3139
F0.94
sS'2014-08-11'
p3140
F0.93
sS'2014-08-16'
p3141
F0.9
sS'2014-08-17'
p3142
F0.85
sS'2014-08-14'
p3143
F0.9
sS'2014-08-15'
p3144
F0.84
sS'2011-05-10'
p3145
F0.59
sS'2010-01-19'
p3146
F0.86
sS'2011-05-12'
p3147
F0.57
sS'2011-05-13'
p3148
F0.75
sS'2011-05-14'
p3149
F0.69
sS'2011-05-15'
p3150
F0.69
sS'2011-05-16'
p3151
F0.65
sS'2011-05-17'
p3152
F0.65
sS'2011-05-18'
p3153
F0.81
sS'2011-05-19'
p3154
F0.53
sS'2015-09-08'
p3155
F0.93
sS'2014-11-21'
p3156
F0.9
sS'2014-11-20'
p3157
F0.93
sS'2014-11-23'
p3158
F0.93
sS'2014-11-22'
p3159
F0.92
sS'2014-11-25'
p3160
F0.85
sS'2014-11-24'
p3161
F0.88
sS'2010-10-22'
p3162
F0.8
sS'2014-11-26'
p3163
F0.93
sS'2011-06-14'
p3164
F0.94
sS'2014-11-28'
p3165
F0.87
sS'2015-06-03'
p3166
F0.75
sS'2012-10-27'
p3167
F0.66
sS'2012-04-29'
p3168
F0.38
sS'2012-04-28'
p3169
F0.58
sS'2011-06-17'
p3170
F0.91
sS'2012-04-25'
p3171
F0.38
sS'2012-04-24'
p3172
F0.55
sS'2012-04-27'
p3173
F0.53
sS'2012-04-26'
p3174
F0.53
sS'2012-04-21'
p3175
F0.62
sS'2012-04-20'
p3176
F0.68
sS'2012-04-23'
p3177
F0.46
sS'2012-04-22'
p3178
F0.58
sS'2009-10-20'
p3179
F0.64
sS'2009-10-21'
p3180
F0.8
sS'2009-10-22'
p3181
F0.84
sS'2009-10-23'
p3182
F0.74
sS'2009-10-24'
p3183
F0.8
sS'2009-10-25'
p3184
F0.88
sS'2009-10-26'
p3185
F0.89
sS'2009-10-27'
p3186
F0.86
sS'2007-10-13'
p3187
F0.71
sS'2007-10-12'
p3188
F0.97
sS'2007-10-11'
p3189
F0.9
sS'2007-10-10'
p3190
F0.88
sS'2007-10-17'
p3191
F0.99
sS'2007-10-16'
p3192
F0.94
sS'2007-10-15'
p3193
F0.86
sS'2007-10-14'
p3194
F0.83
sS'2011-10-12'
p3195
F0.95
sS'2011-10-13'
p3196
F0.99
sS'2006-07-18'
p3197
F0.82
sS'2006-07-19'
p3198
F0.81
sS'2011-10-16'
p3199
F0.8
sS'2011-10-17'
p3200
F0.87
sS'2011-10-14'
p3201
F0.84
sS'2011-10-15'
p3202
F0.79
sS'2006-07-12'
p3203
F0.85
sS'2006-07-13'
p3204
F0.94
sS'2006-07-10'
p3205
F0.91
sS'2006-07-11'
p3206
F0.84
sS'2006-07-16'
p3207
F0.8
sS'2006-07-17'
p3208
F0.72
sS'2006-07-14'
p3209
F0.93
sS'2006-07-15'
p3210
F0.69
sS'2007-03-17'
p3211
F0.76
sS'2007-03-16'
p3212
F0.77
sS'2007-03-15'
p3213
F0.8
sS'2007-03-14'
p3214
F0.81
sS'2007-03-13'
p3215
F0.81
sS'2007-03-12'
p3216
F0.8
sS'2007-03-11'
p3217
F0.84
sS'2007-03-10'
p3218
F0.84
sS'2007-03-19'
p3219
F0.84
sS'2007-03-18'
p3220
F0.62
sS'2015-01-23'
p3221
F0.92
sS'2015-02-22'
p3222
F0.86
sS'2015-01-22'
p3223
F0.86
sS'2013-10-30'
p3224
F0.95
sS'2014-02-20'
p3225
F0.86
sS'2010-10-13'
p3226
F0.76
sS'2010-10-12'
p3227
F0.83
sS'2010-10-11'
p3228
F0.83
sS'2010-10-10'
p3229
F0.75
sS'2010-10-17'
p3230
F0.74
sS'2010-10-16'
p3231
F0.68
sS'2010-10-15'
p3232
F0.87
sS'2010-10-14'
p3233
F0.78
sS'2010-10-19'
p3234
F0.79
sS'2010-10-18'
p3235
F0.77
sS'2012-07-08'
p3236
F0.87
sS'2012-07-09'
p3237
F0.96
sS'2015-01-29'
p3238
F0.93
sS'2007-01-26'
p3239
F0.84
sS'2015-01-28'
p3240
F0.7
sS'2012-07-02'
p3241
I1
sS'2008-08-11'
p3242
I1
sS'2011-06-13'
p3243
F0.71
sS'2009-06-30'
p3244
F0.97
sS'2008-06-30'
p3245
I1
sS'2012-07-03'
p3246
F0.93
sS'2008-08-10'
p3247
I1
sS'2013-05-05'
p3248
F0.76
sS'2013-05-04'
p3249
F0.78
sS'2013-05-07'
p3250
F0.73
sS'2013-05-06'
p3251
F0.69
sS'2013-05-01'
p3252
F0.6
sS'2015-05-19'
p3253
F0.72
sS'2013-05-03'
p3254
F0.74
sS'2013-05-02'
p3255
F0.68
sS'2015-05-14'
p3256
F0.84
sS'2015-05-15'
p3257
F0.72
sS'2015-05-16'
p3258
F0.71
sS'2015-05-17'
p3259
F0.91
sS'2013-05-09'
p3260
F0.62
sS'2013-05-08'
p3261
F0.74
sS'2015-05-12'
p3262
F0.59
sS'2015-05-13'
p3263
F0.71
sS'2015-01-25'
p3264
F0.9
sS'2015-01-24'
p3265
F0.85
sS'2015-01-27'
p3266
F0.7
sS'2015-01-26'
p3267
F0.88
sS'2015-01-21'
p3268
F0.86
sS'2015-01-20'
p3269
F0.92
sS'2013-06-28'
p3270
F0.87
sS'2013-06-29'
p3271
F0.79
sS'2013-06-26'
p3272
F0.93
sS'2013-06-27'
p3273
F0.93
sS'2013-06-24'
p3274
F0.86
sS'2013-06-25'
p3275
F0.82
sS'2013-06-22'
p3276
F0.87
sS'2013-06-23'
p3277
F0.91
sS'2013-06-20'
p3278
I1
sS'2013-06-21'
p3279
F0.93
sS'2012-03-30'
p3280
F0.79
sS'2012-11-30'
p3281
F0.8
sS'2010-05-24'
p3282
F0.64
s.