(dp0
S'2008-11-17'
p1
I0
sS'2008-11-16'
p2
I0
sS'2008-11-15'
p3
I0
sS'2008-11-14'
p4
I0
sS'2008-11-13'
p5
I0
sS'2008-11-12'
p6
I0
sS'2008-11-11'
p7
I0
sS'2008-11-10'
p8
I0
sS'2015-11-11'
p9
I0
sS'2015-11-10'
p10
I0
sS'2015-11-13'
p11
I0
sS'2015-11-12'
p12
I0
sS'2015-11-15'
p13
I0
sS'2015-11-14'
p14
I0
sS'2008-11-19'
p15
I0
sS'2008-11-18'
p16
I0
sS'2013-04-19'
p17
I0
sS'2013-04-18'
p18
I0
sS'2015-11-29'
p19
I0
sS'2013-01-01'
p20
I0
sS'2013-01-03'
p21
I0
sS'2013-01-02'
p22
I0
sS'2013-01-05'
p23
I0
sS'2013-01-04'
p24
I0
sS'2012-03-28'
p25
I0
sS'2013-01-06'
p26
I0
sS'2013-01-09'
p27
I0
sS'2013-01-08'
p28
I0
sS'2006-08-29'
p29
I0
sS'2014-03-30'
p30
I0
sS'2012-03-29'
p31
I0
sS'2008-07-30'
p32
I0
sS'2013-04-16'
p33
I0
sS'2012-03-19'
p34
I0
sS'2012-02-27'
p35
I0
sS'2010-05-08'
p36
I0
sS'2010-05-09'
p37
I0
sS'2010-05-06'
p38
I0
sS'2010-05-07'
p39
I0
sS'2010-05-04'
p40
I0
sS'2010-05-05'
p41
I0
sS'2010-05-02'
p42
I0
sS'2010-05-03'
p43
I0
sS'2012-03-17'
p44
I0
sS'2010-05-01'
p45
I0
sS'2009-09-13'
p46
I0
sS'2012-02-24'
p47
I0
sS'2009-09-12'
p48
I0
sS'2012-02-23'
p49
I0
sS'2012-02-22'
p50
I0
sS'2012-02-21'
p51
I0
sS'2012-02-20'
p52
I0
sS'2008-04-22'
p53
I0
sS'2014-08-09'
p54
I0
sS'2014-08-08'
p55
I0
sS'2009-09-18'
p56
I0
sS'2014-08-01'
p57
I0
sS'2014-08-03'
p58
I0
sS'2014-08-02'
p59
I0
sS'2014-08-05'
p60
I0
sS'2014-08-04'
p61
I0
sS'2014-08-07'
p62
I0
sS'2007-03-30'
p63
I0
sS'2011-05-07'
p64
I0
sS'2011-05-06'
p65
I0
sS'2011-05-05'
p66
I0
sS'2011-05-04'
p67
I0
sS'2011-05-03'
p68
I0
sS'2011-05-02'
p69
I0
sS'2011-05-01'
p70
I0
sS'2011-05-09'
p71
I0
sS'2011-05-08'
p72
I0
sS'2014-11-14'
p73
I0
sS'2014-11-15'
p74
I0
sS'2014-11-16'
p75
I0
sS'2014-11-17'
p76
I0
sS'2014-11-10'
p77
I0
sS'2014-11-11'
p78
I0
sS'2014-11-12'
p79
I0
sS'2014-11-13'
p80
I0
sS'2014-11-18'
p81
I0
sS'2014-11-19'
p82
I0
sS'2010-10-26'
p83
I0
sS'2012-04-10'
p84
I0
sS'2012-04-11'
p85
I0
sS'2012-04-12'
p86
I0
sS'2012-04-13'
p87
I0
sS'2012-04-14'
p88
I0
sS'2012-04-15'
p89
I0
sS'2012-04-16'
p90
I0
sS'2012-04-17'
p91
I0
sS'2012-04-18'
p92
I0
sS'2012-04-19'
p93
I0
sS'2012-09-10'
p94
I0
sS'2009-10-30'
p95
I0
sS'2011-06-30'
p96
I0
sS'2006-07-09'
p97
I0
sS'2006-07-08'
p98
I0
sS'2011-10-03'
p99
I0
sS'2011-10-02'
p100
I0
sS'2011-10-05'
p101
I0
sS'2011-10-04'
p102
I0
sS'2011-10-07'
p103
I0
sS'2011-10-06'
p104
I0
sS'2006-07-01'
p105
I0
sS'2011-10-08'
p106
I0
sS'2006-07-03'
p107
I0
sS'2006-07-02'
p108
I0
sS'2006-07-05'
p109
I0
sS'2006-07-04'
p110
I0
sS'2006-07-07'
p111
I0
sS'2006-07-06'
p112
I0
sS'2011-02-09'
p113
I0
sS'2015-06-24'
p114
I0
sS'2013-10-29'
p115
I0
sS'2011-03-29'
p116
I0
sS'2015-06-25'
p117
I0
sS'2013-10-25'
p118
I0
sS'2013-10-24'
p119
I0
sS'2013-10-27'
p120
I0
sS'2011-03-28'
p121
I0
sS'2013-10-21'
p122
I0
sS'2013-10-20'
p123
I0
sS'2013-10-23'
p124
I0
sS'2013-10-22'
p125
I0
sS'2006-04-22'
p126
I0
sS'2006-04-23'
p127
I0
sS'2006-04-20'
p128
I0
sS'2006-04-21'
p129
I0
sS'2006-04-26'
p130
I0
sS'2006-04-27'
p131
I0
sS'2006-04-24'
p132
I0
sS'2006-04-25'
p133
I0
sS'2006-04-28'
p134
I0
sS'2006-04-29'
p135
I0
sS'2012-07-19'
p136
I0
sS'2012-07-18'
p137
I0
sS'2015-02-26'
p138
I0
sS'2011-03-23'
p139
I0
sS'2011-03-22'
p140
I0
sS'2010-09-08'
p141
I0
sS'2010-09-09'
p142
I0
sS'2012-05-30'
p143
I0
sS'2010-09-02'
p144
I0
sS'2010-09-03'
p145
I0
sS'2010-09-01'
p146
I0
sS'2010-09-06'
p147
I0
sS'2010-09-07'
p148
I0
sS'2010-09-04'
p149
I0
sS'2010-09-05'
p150
I0
sS'2009-06-27'
p151
I0
sS'2009-06-26'
p152
I0
sS'2009-06-25'
p153
I0
sS'2009-06-24'
p154
I0
sS'2009-06-23'
p155
I0
sS'2008-06-09'
p156
I0
sS'2009-06-21'
p157
F7.366
sS'2009-06-20'
p158
I0
sS'2008-06-04'
p159
F0.254
sS'2008-06-05'
p160
I0
sS'2008-06-06'
p161
I0
sS'2008-06-07'
p162
I0
sS'2008-06-01'
p163
I0
sS'2008-06-02'
p164
I0
sS'2008-06-03'
p165
I0
sS'2015-05-03'
p166
I0
sS'2012-11-16'
p167
I0
sS'2012-02-01'
p168
I0
sS'2012-06-20'
p169
I0
sS'2015-05-07'
p170
I0
sS'2015-05-06'
p171
I0
sS'2015-05-05'
p172
I0
sS'2012-11-17'
p173
I0
sS'2013-04-17'
p174
I0
sS'2015-05-08'
p175
I0
sS'2014-04-16'
p176
I0
sS'2014-04-17'
p177
I0
sS'2014-04-14'
p178
I0
sS'2012-11-15'
p179
I0
sS'2014-04-12'
p180
I0
sS'2014-04-13'
p181
I0
sS'2014-04-10'
p182
I0
sS'2014-04-11'
p183
I0
sS'2015-01-10'
p184
I0
sS'2007-01-28'
p185
I0
sS'2015-01-12'
p186
I0
sS'2015-01-13'
p187
I0
sS'2015-01-14'
p188
I0
sS'2015-01-15'
p189
I0
sS'2014-04-18'
p190
I0
sS'2007-01-29'
p191
I0
sS'2008-05-12'
p192
I0
sS'2008-05-13'
p193
I0
sS'2008-05-10'
p194
I0
sS'2008-05-11'
p195
I0
sS'2008-05-16'
p196
I0
sS'2008-05-17'
p197
I0
sS'2008-05-14'
p198
I0
sS'2008-05-15'
p199
I0
sS'2008-05-18'
p200
I0
sS'2008-05-19'
p201
I0
sS'2013-06-30'
p202
I0
sS'2007-01-24'
p203
I0
sS'2009-11-18'
p204
I0
sS'2009-11-19'
p205
I0
sS'2012-11-29'
p206
I0
sS'2006-11-07'
p207
I0
sS'2009-11-12'
p208
I0
sS'2009-11-13'
p209
I0
sS'2009-11-10'
p210
I0
sS'2009-11-11'
p211
I0
sS'2009-11-16'
p212
I0
sS'2009-07-08'
p213
I0
sS'2009-11-14'
p214
I0
sS'2009-11-15'
p215
I0
sS'2007-01-27'
p216
I0
sS'2006-11-02'
p217
I0
sS'2006-11-03'
p218
I0
sS'2015-11-28'
p219
I0
sS'2012-11-18'
p220
I0
sS'2014-10-09'
p221
I0
sS'2015-11-24'
p222
I0
sS'2015-11-25'
p223
I0
sS'2015-11-26'
p224
I0
sS'2006-11-01'
p225
I0
sS'2015-11-20'
p226
I0
sS'2015-11-21'
p227
I0
sS'2015-11-22'
p228
I0
sS'2015-11-23'
p229
I0
sS'2013-05-30'
p230
F4.064
sS'2015-08-12'
p231
I0
sS'2009-04-30'
p232
I0
sS'2007-06-30'
p233
I0
sS'2015-08-16'
p234
I0
sS'2015-06-05'
p235
I0
sS'2013-07-15'
p236
I0
sS'2015-08-14'
p237
I0
sS'2013-01-30'
p238
I0
sS'2012-09-08'
p239
I0
sS'2015-08-18'
p240
I0
sS'2014-03-08'
p241
I0
sS'2013-01-07'
p242
I0
sS'2012-09-09'
p243
I0
sS'2014-03-04'
p244
I0
sS'2014-03-05'
p245
I0
sS'2014-03-06'
p246
I0
sS'2013-07-13'
p247
I0
sS'2014-03-01'
p248
I0
sS'2014-03-02'
p249
I0
sS'2014-03-03'
p250
I0
sS'2015-10-19'
p251
I0
sS'2015-02-23'
p252
I0
sS'2015-02-24'
p253
I0
sS'2015-02-25'
p254
I0
sS'2010-01-02'
p255
I0
sS'2010-01-03'
p256
I0
sS'2010-01-01'
p257
I0
sS'2010-01-06'
p258
I0
sS'2010-01-07'
p259
I0
sS'2010-01-04'
p260
I0
sS'2010-01-05'
p261
I0
sS'2010-01-08'
p262
I0
sS'2010-01-09'
p263
I0
sS'2013-07-19'
p264
I0
sS'2015-02-27'
p265
I0
sS'2013-09-19'
p266
I0
sS'2012-09-03'
p267
I0
sS'2012-09-04'
p268
I0
sS'2012-09-05'
p269
I0
sS'2013-04-08'
p270
I0
sS'2012-02-06'
p271
I0
sS'2010-05-19'
p272
I0
sS'2010-05-18'
p273
I0
sS'2013-09-13'
p274
F1.524
sS'2010-05-15'
p275
I0
sS'2010-05-14'
p276
I0
sS'2010-05-17'
p277
I0
sS'2010-05-16'
p278
I0
sS'2010-05-11'
p279
I0
sS'2010-05-10'
p280
I0
sS'2010-05-13'
p281
I0
sS'2010-05-12'
p282
I0
sS'2014-07-17'
p283
I0
sS'2014-07-16'
p284
F0.762
sS'2013-11-28'
p285
I0
sS'2013-04-09'
p286
I0
sS'2013-11-29'
p287
I0
sS'2014-07-13'
p288
I0
sS'2012-01-26'
p289
I0
sS'2014-07-12'
p290
I0
sS'2014-07-11'
p291
I0
sS'2014-07-10'
p292
I0
sS'2014-08-30'
p293
F0.508
sS'2013-11-24'
p294
I0
sS'2013-11-25'
p295
I0
sS'2010-04-26'
p296
I0
sS'2014-09-05'
p297
I0
sS'2012-04-07'
p298
I0
sS'2012-04-06'
p299
I0
sS'2012-04-05'
p300
I0
sS'2010-04-28'
p301
I0
sS'2012-04-03'
p302
I0
sS'2012-04-02'
p303
I0
sS'2012-04-01'
p304
I0
sS'2012-04-09'
p305
I0
sS'2012-04-08'
p306
I0
sS'2012-03-12'
p307
I0
sS'2015-09-30'
p308
I0
sS'2011-10-27'
p309
I0
sS'2011-10-30'
p310
I0
sS'2006-07-30'
p311
I0
sS'2012-03-15'
p312
I0
sS'2015-09-24'
p313
I0
sS'2012-07-28'
p314
I0
sS'2012-07-29'
p315
I0
sS'2013-10-12'
p316
I0
sS'2013-10-13'
p317
I0
sS'2013-10-14'
p318
I0
sS'2012-01-28'
p319
I0
sS'2013-10-16'
p320
I0
sS'2013-10-17'
p321
I0
sS'2012-07-20'
p322
I0
sS'2012-07-21'
p323
I0
sS'2012-07-22'
p324
I0
sS'2012-01-29'
p325
I0
sS'2012-07-24'
p326
I0
sS'2007-09-26'
p327
I0
sS'2012-07-26'
p328
I0
sS'2012-07-27'
p329
I0
sS'2006-04-30'
p330
I0
sS'2014-11-09'
p331
I0
sS'2007-09-27'
p332
I0
sS'2012-01-27'
p333
I0
sS'2014-11-03'
p334
I0
sS'2014-11-02'
p335
I0
sS'2014-11-01'
p336
I0
sS'2015-09-22'
p337
I0
sS'2014-11-07'
p338
I0
sS'2012-01-24'
p339
I0
sS'2014-11-05'
p340
I0
sS'2014-11-04'
p341
I0
sS'2011-08-26'
p342
I0
sS'2012-01-25'
p343
I0
sS'2011-08-27'
p344
I0
sS'2012-01-22'
p345
I0
sS'2011-08-24'
p346
I0
sS'2012-01-23'
p347
I0
sS'2010-09-19'
p348
I0
sS'2010-09-18'
p349
I0
sS'2011-08-25'
p350
F0.254
sS'2012-01-20'
p351
I0
sS'2007-11-30'
p352
I0
sS'2012-10-03'
p353
I0
sS'2010-09-11'
p354
I0
sS'2010-09-10'
p355
I0
sS'2010-09-13'
p356
I0
sS'2010-09-12'
p357
I0
sS'2010-09-15'
p358
I0
sS'2010-09-14'
p359
I0
sS'2010-09-17'
p360
I0
sS'2010-09-16'
p361
I0
sS'2008-06-13'
p362
I0
sS'2008-06-12'
p363
I0
sS'2008-06-11'
p364
I0
sS'2008-06-10'
p365
I0
sS'2008-06-17'
p366
I0
sS'2008-06-16'
p367
I0
sS'2008-06-15'
p368
I0
sS'2008-06-14'
p369
I0
sS'2007-02-07'
p370
I0
sS'2008-06-19'
p371
I0
sS'2008-06-18'
p372
I0
sS'2007-09-29'
p373
I0
sS'2008-01-16'
p374
I0
sS'2008-01-17'
p375
I0
sS'2008-01-14'
p376
I0
sS'2008-01-15'
p377
I0
sS'2008-01-12'
p378
I0
sS'2008-01-13'
p379
I0
sS'2008-01-10'
p380
I0
sS'2008-01-11'
p381
I0
sS'2012-10-05'
p382
I0
sS'2008-01-18'
p383
I0
sS'2008-01-19'
p384
I0
sS'2014-04-05'
p385
I0
sS'2014-04-04'
p386
I0
sS'2014-04-07'
p387
I0
sS'2014-04-06'
p388
I0
sS'2014-04-01'
p389
I0
sS'2014-04-03'
p390
I0
sS'2014-04-02'
p391
I0
sS'2015-01-07'
p392
I0
sS'2015-01-06'
p393
I0
sS'2015-01-05'
p394
I0
sS'2015-01-04'
p395
I0
sS'2014-04-09'
p396
I0
sS'2014-04-08'
p397
I0
sS'2015-01-01'
p398
I0
sS'2008-05-01'
p399
I0
sS'2013-06-01'
p400
I0
sS'2008-05-03'
p401
I0
sS'2008-05-02'
p402
I0
sS'2008-05-05'
p403
I0
sS'2008-05-04'
p404
I0
sS'2008-05-07'
p405
I0
sS'2008-05-06'
p406
I0
sS'2008-05-09'
p407
I0
sS'2008-05-08'
p408
I0
sS'2009-11-09'
p409
I0
sS'2009-11-08'
p410
I0
sS'2015-08-28'
p411
I0
sS'2008-09-18'
p412
I0
sS'2008-09-19'
p413
I0
sS'2008-09-16'
p414
I0
sS'2008-09-17'
p415
I0
sS'2009-11-03'
p416
I0
sS'2008-09-15'
p417
I0
sS'2009-11-05'
p418
I0
sS'2008-09-13'
p419
I0
sS'2009-11-07'
p420
I0
sS'2008-09-11'
p421
I0
sS'2006-11-20'
p422
I0
sS'2014-08-06'
p423
I0
sS'2015-11-30'
p424
I0
sS'2006-11-21'
p425
I0
sS'2015-07-15'
p426
I0
sS'2015-07-13'
p427
I0
sS'2013-05-29'
p428
I0
sS'2013-05-28'
p429
I0
sS'2013-05-27'
p430
I0
sS'2013-05-26'
p431
I0
sS'2013-05-25'
p432
I0
sS'2013-05-24'
p433
I0
sS'2013-05-23'
p434
I0
sS'2013-05-22'
p435
I0
sS'2006-11-22'
p436
I0
sS'2013-05-20'
p437
I0
sS'2009-04-29'
p438
I0
sS'2009-04-28'
p439
I0
sS'2007-06-29'
p440
I0
sS'2007-06-28'
p441
I0
sS'2009-04-21'
p442
I0
sS'2009-04-20'
p443
I0
sS'2009-04-23'
p444
I0
sS'2007-06-26'
p445
I0
sS'2007-06-21'
p446
I0
sS'2009-04-24'
p447
I0
sS'2007-06-23'
p448
I0
sS'2007-06-22'
p449
I0
sS'2013-01-29'
p450
I0
sS'2013-01-28'
p451
I0
sS'2012-03-18'
p452
I0
sS'2013-01-23'
p453
I0
sS'2013-01-22'
p454
I0
sS'2013-01-21'
p455
I0
sS'2013-01-20'
p456
I0
sS'2013-01-27'
p457
I0
sS'2013-01-26'
p458
I0
sS'2013-01-25'
p459
I0
sS'2013-01-24'
p460
I0
sS'2006-11-24'
p461
I0
sS'2014-03-13'
p462
I0
sS'2014-03-12'
p463
I0
sS'2014-03-11'
p464
I0
sS'2014-03-10'
p465
I0
sS'2014-03-17'
p466
I0
sS'2014-03-16'
p467
I0
sS'2014-03-15'
p468
I0
sS'2014-03-14'
p469
I0
sS'2014-03-19'
p470
I0
sS'2014-03-18'
p471
I0
sS'2012-03-11'
p472
I0
sS'2013-03-23'
p473
I0
sS'2012-03-10'
p474
I0
sS'2006-11-25'
p475
I0
sS'2012-07-30'
p476
I0
sS'2012-03-13'
p477
I0
sS'2010-01-11'
p478
I0
sS'2010-01-10'
p479
I0
sS'2010-01-13'
p480
I0
sS'2010-01-12'
p481
I0
sS'2010-01-15'
p482
I0
sS'2010-01-14'
p483
I0
sS'2010-01-17'
p484
I0
sS'2010-01-16'
p485
I0
sS'2009-05-03'
p486
I0
sS'2010-01-18'
p487
I0
sS'2012-03-14'
p488
I0
sS'2006-11-26'
p489
I0
sS'2012-03-16'
p490
I0
sS'2015-10-30'
p491
I0
sS'2010-05-20'
p492
I0
sS'2010-05-21'
p493
I0
sS'2010-05-22'
p494
I0
sS'2010-05-23'
p495
I0
sS'2006-11-27'
p496
I0
sS'2010-05-25'
p497
I0
sS'2010-05-26'
p498
I0
sS'2010-05-27'
p499
I0
sS'2010-05-28'
p500
I0
sS'2010-05-29'
p501
I0
sS'2008-10-30'
p502
I0
sS'2015-10-09'
p503
I0
sS'2014-08-23'
p504
I0
sS'2014-08-22'
p505
I0
sS'2014-08-21'
p506
I0
sS'2014-08-20'
p507
I0
sS'2012-11-27'
p508
I0
sS'2014-08-26'
p509
I0
sS'2014-08-25'
p510
I0
sS'2014-08-24'
p511
I0
sS'2014-08-29'
p512
I0
sS'2014-08-28'
p513
I0
sS'2010-04-05'
p514
I0
sS'2015-02-17'
p515
I0
sS'2011-04-28'
p516
I0
sS'2011-04-29'
p517
I0
sS'2011-04-22'
p518
I0
sS'2011-04-23'
p519
I0
sS'2011-04-20'
p520
I0
sS'2011-04-21'
p521
I0
sS'2011-04-26'
p522
I0
sS'2011-04-27'
p523
I0
sS'2011-04-24'
p524
I0
sS'2011-04-25'
p525
I0
sS'2014-01-26'
p526
I0
sS'2011-11-29'
p527
I0
sS'2015-09-29'
p528
I0
sS'2015-09-28'
p529
I0
sS'2015-09-25'
p530
I0
sS'2010-09-28'
p531
I0
sS'2015-09-27'
p532
I0
sS'2015-09-26'
p533
I0
sS'2015-09-21'
p534
I0
sS'2015-09-20'
p535
I0
sS'2015-09-23'
p536
I0
sS'2010-09-29'
p537
F3.556
sS'2006-07-23'
p538
I0
sS'2006-07-22'
p539
I0
sS'2006-07-21'
p540
I0
sS'2006-07-20'
p541
F0.762
sS'2006-07-27'
p542
I0
sS'2006-07-26'
p543
I0
sS'2006-07-25'
p544
I0
sS'2006-07-24'
p545
I0
sS'2006-07-29'
p546
I0
sS'2006-07-28'
p547
I0
sS'2011-08-28'
p548
I0
sS'2011-08-29'
p549
I0
sS'2008-02-28'
p550
I0
sS'2008-02-29'
p551
I0
sS'2008-02-26'
p552
I0
sS'2008-02-27'
p553
I0
sS'2008-02-24'
p554
I0
sS'2008-02-25'
p555
I0
sS'2008-02-22'
p556
I0
sS'2008-02-23'
p557
I0
sS'2008-02-20'
p558
I0
sS'2008-02-21'
p559
I0
sS'2013-10-07'
p560
I0
sS'2013-10-06'
p561
I0
sS'2013-10-05'
p562
I0
sS'2013-10-04'
p563
I0
sS'2012-11-03'
p564
I0
sS'2013-10-02'
p565
I0
sS'2013-10-01'
p566
I0
sS'2010-09-20'
p567
I0
sS'2013-10-09'
p568
I0
sS'2010-09-21'
p569
I0
sS'2006-04-04'
p570
I0
sS'2006-04-05'
p571
I0
sS'2006-04-06'
p572
I0
sS'2006-04-07'
p573
I0
sS'2006-04-01'
p574
I0
sS'2006-04-02'
p575
I0
sS'2006-04-03'
p576
I0
sS'2006-04-08'
p577
I0
sS'2006-04-09'
p578
I0
sS'2015-03-23'
p579
I0
sS'2015-03-22'
p580
I0
sS'2015-03-21'
p581
I0
sS'2007-11-25'
p582
I0
sS'2007-11-24'
p583
I0
sS'2007-11-27'
p584
I0
sS'2007-11-26'
p585
I0
sS'2007-11-21'
p586
I0
sS'2007-11-20'
p587
I0
sS'2007-11-23'
p588
I0
sS'2007-11-22'
p589
I0
sS'2010-09-24'
p590
I0
sS'2010-09-25'
p591
I0
sS'2010-09-26'
p592
I0
sS'2010-09-27'
p593
I0
sS'2007-11-29'
p594
I0
sS'2007-11-28'
p595
I0
sS'2010-09-22'
p596
I0
sS'2010-09-23'
p597
I0
sS'2015-03-24'
p598
I0
sS'2008-01-05'
p599
I0
sS'2008-01-04'
p600
I0
sS'2008-01-07'
p601
I0
sS'2008-01-06'
p602
I0
sS'2008-01-01'
p603
I0
sS'2015-06-07'
p604
I0
sS'2008-01-03'
p605
I0
sS'2008-01-02'
p606
I0
sS'2011-10-23'
p607
I0
sS'2011-10-22'
p608
I0
sS'2011-10-21'
p609
I0
sS'2011-10-20'
p610
I0
sS'2008-01-09'
p611
I0
sS'2008-01-08'
p612
I0
sS'2011-10-25'
p613
I0
sS'2011-10-24'
p614
I0
sS'2007-01-08'
p615
I0
sS'2007-01-09'
p616
I0
sS'2007-01-02'
p617
I0
sS'2007-01-03'
p618
I0
sS'2007-01-01'
p619
I0
sS'2007-01-06'
p620
I0
sS'2007-01-07'
p621
I0
sS'2007-01-04'
p622
I0
sS'2007-01-05'
p623
I0
sS'2013-06-17'
p624
I0
sS'2013-06-16'
p625
I0
sS'2013-06-15'
p626
I0
sS'2013-06-14'
p627
I0
sS'2008-05-30'
p628
I0
sS'2013-06-12'
p629
I0
sS'2013-06-11'
p630
I0
sS'2013-06-10'
p631
I0
sS'2015-02-06'
p632
I0
sS'2015-02-07'
p633
I0
sS'2015-02-04'
p634
I0
sS'2015-02-05'
p635
I0
sS'2015-02-02'
p636
I0
sS'2011-10-29'
p637
I0
sS'2013-06-19'
p638
I0
sS'2013-06-18'
p639
I0
sS'2012-09-26'
p640
I0
sS'2012-09-27'
p641
I0
sS'2012-09-24'
p642
I0
sS'2011-10-28'
p643
I0
sS'2008-09-09'
p644
I0
sS'2008-09-08'
p645
I0
sS'2012-09-20'
p646
I0
sS'2012-09-21'
p647
I0
sS'2008-09-05'
p648
I0
sS'2008-09-04'
p649
I0
sS'2008-09-07'
p650
I0
sS'2008-09-06'
p651
I0
sS'2009-11-30'
p652
I0
sS'2014-07-30'
p653
I0
sS'2008-09-03'
p654
I0
sS'2008-09-02'
p655
I0
sS'2015-06-04'
p656
I0
sS'2015-04-18'
p657
I0
sS'2007-09-02'
p658
I0
sS'2007-09-03'
p659
I0
sS'2007-09-01'
p660
I0
sS'2007-09-06'
p661
I0
sS'2007-09-07'
p662
I0
sS'2007-09-04'
p663
I0
sS'2007-09-05'
p664
I0
sS'2007-09-08'
p665
I0
sS'2007-09-09'
p666
F0.762
sS'2015-06-08'
p667
I0
sS'2007-02-21'
p668
I0
sS'2007-02-20'
p669
I0
sS'2007-02-23'
p670
I0
sS'2007-02-22'
p671
I0
sS'2007-02-25'
p672
I0
sS'2007-02-24'
p673
I0
sS'2007-02-27'
p674
I0
sS'2007-02-26'
p675
I0
sS'2007-02-28'
p676
I0
sS'2011-10-26'
p677
I0
sS'2015-09-19'
p678
I0
sS'2007-06-10'
p679
I0
sS'2007-06-11'
p680
I0
sS'2007-06-12'
p681
I0
sS'2007-06-13'
p682
I0
sS'2009-04-18'
p683
I0
sS'2009-04-19'
p684
I0
sS'2007-06-16'
p685
I0
sS'2007-06-17'
p686
I0
sS'2009-04-14'
p687
I0
sS'2009-04-15'
p688
I0
sS'2009-04-16'
p689
I0
sS'2009-04-17'
p690
I0
sS'2009-04-10'
p691
I0
sS'2009-04-11'
p692
I0
sS'2009-04-12'
p693
I0
sS'2009-04-13'
p694
I0
sS'2012-06-01'
p695
I0
sS'2015-05-28'
p696
I0
sS'2014-04-30'
p697
I0
sS'2014-10-28'
p698
I0
sS'2014-10-29'
p699
I0
sS'2014-10-26'
p700
I0
sS'2014-10-27'
p701
I0
sS'2010-01-24'
p702
I0
sS'2010-01-25'
p703
I0
sS'2010-01-26'
p704
I0
sS'2010-01-27'
p705
I0
sS'2010-01-20'
p706
I0
sS'2010-01-21'
p707
I0
sS'2010-01-22'
p708
I0
sS'2010-01-23'
p709
I0
sS'2010-01-28'
p710
I0
sS'2010-01-29'
p711
I0
sS'2009-05-25'
p712
I0
sS'2009-05-22'
p713
I0
sS'2009-05-23'
p714
I0
sS'2008-08-17'
p715
I0
sS'2008-08-16'
p716
I0
sS'2010-05-30'
p717
I0
sS'2008-10-21'
p718
I0
sS'2008-10-20'
p719
I0
sS'2008-10-23'
p720
I0
sS'2008-10-22'
p721
I0
sS'2008-10-25'
p722
I0
sS'2008-10-24'
p723
I0
sS'2008-10-27'
p724
I0
sS'2008-10-26'
p725
I0
sS'2008-10-29'
p726
I0
sS'2008-10-28'
p727
I0
sS'2015-02-08'
p728
I0
sS'2006-03-18'
p729
I0
sS'2006-03-19'
p730
I0
sS'2006-03-16'
p731
I0
sS'2006-03-17'
p732
I0
sS'2006-03-14'
p733
I0
sS'2006-03-15'
p734
I0
sS'2006-03-12'
p735
I0
sS'2006-03-13'
p736
I0
sS'2006-03-10'
p737
I0
sS'2006-03-11'
p738
I0
sS'2008-03-14'
p739
I0
sS'2007-07-12'
p740
I0
sS'2007-07-11'
p741
I0
sS'2008-03-17'
p742
I0
sS'2008-03-10'
p743
I0
sS'2008-03-11'
p744
I0
sS'2008-03-12'
p745
I0
sS'2007-07-14'
p746
I0
sS'2014-07-25'
p747
I0
sS'2011-04-30'
p748
I0
sS'2011-01-16'
p749
I0
sS'2015-02-03'
p750
I0
sS'2015-02-01'
p751
I0
sS'2015-09-10'
p752
I0
sS'2015-09-11'
p753
I0
sS'2015-06-06'
p754
I0
sS'2012-09-25'
p755
I0
sS'2015-09-14'
p756
F23.622
sS'2015-09-15'
p757
F0.508
sS'2015-09-16'
p758
F0.508
sS'2015-09-17'
p759
I0
sS'2015-09-18'
p760
I0
sS'2012-09-22'
p761
I0
sS'2012-09-23'
p762
I0
sS'2011-08-30'
p763
I0
sS'2009-08-30'
p764
I0
sS'2010-11-13'
p765
I0
sS'2010-11-14'
p766
I0
sS'2010-11-15'
p767
I0
sS'2006-04-19'
p768
I0
sS'2006-04-18'
p769
I0
sS'2006-04-13'
p770
I0
sS'2006-04-12'
p771
I0
sS'2006-04-11'
p772
I0
sS'2006-04-10'
p773
I0
sS'2006-04-17'
p774
I0
sS'2006-04-16'
p775
I0
sS'2006-04-15'
p776
I0
sS'2006-04-14'
p777
I0
sS'2010-11-18'
p778
I0
sS'2006-02-27'
p779
I0
sS'2012-09-28'
p780
I0
sS'2010-11-19'
p781
I0
sS'2012-09-29'
p782
I0
sS'2007-11-18'
p783
I0
sS'2007-11-19'
p784
I0
sS'2007-11-10'
p785
I0
sS'2007-11-11'
p786
I0
sS'2007-11-12'
p787
I0
sS'2007-11-13'
p788
I0
sS'2007-11-14'
p789
I0
sS'2007-11-15'
p790
I0
sS'2007-11-16'
p791
I0
sS'2007-11-17'
p792
I0
sS'2010-04-01'
p793
I0
sS'2010-09-30'
p794
I0
sS'2010-04-03'
p795
I0
sS'2008-01-30'
p796
I0
sS'2006-02-28'
p797
I0
sS'2011-08-22'
p798
I0
sS'2010-04-04'
p799
I0
sS'2015-06-11'
p800
I0
sS'2015-06-10'
p801
I0
sS'2012-05-28'
p802
I0
sS'2012-05-29'
p803
I0
sS'2015-06-15'
p804
I0
sS'2010-04-07'
p805
I0
sS'2015-06-17'
p806
I0
sS'2015-06-16'
p807
I0
sS'2012-05-22'
p808
I0
sS'2012-05-23'
p809
I0
sS'2012-05-20'
p810
I0
sS'2010-04-06'
p811
I0
sS'2012-05-26'
p812
I0
sS'2012-05-27'
p813
I0
sS'2012-05-24'
p814
I0
sS'2012-05-25'
p815
I0
sS'2007-01-19'
p816
I0
sS'2007-01-18'
p817
I0
sS'2014-04-29'
p818
I0
sS'2014-04-28'
p819
I0
sS'2007-01-11'
p820
I0
sS'2007-01-10'
p821
I0
sS'2007-01-13'
p822
I0
sS'2007-01-12'
p823
I0
sS'2007-01-15'
p824
I0
sS'2007-01-14'
p825
I0
sS'2007-01-17'
p826
I0
sS'2007-01-16'
p827
I0
sS'2008-05-29'
p828
I0
sS'2008-05-28'
p829
I0
sS'2008-05-23'
p830
I0
sS'2008-05-22'
p831
I0
sS'2008-05-21'
p832
I0
sS'2008-05-20'
p833
I0
sS'2008-05-27'
p834
I0
sS'2008-05-26'
p835
I0
sS'2008-05-25'
p836
I0
sS'2008-05-24'
p837
I0
sS'2007-05-06'
p838
I0
sS'2007-05-07'
p839
I0
sS'2007-05-04'
p840
I0
sS'2007-05-05'
p841
I0
sS'2007-05-02'
p842
I0
sS'2007-05-03'
p843
I0
sS'2007-05-01'
p844
I0
sS'2015-02-15'
p845
I0
sS'2015-02-14'
p846
I0
sS'2011-08-20'
p847
I0
sS'2015-02-16'
p848
I0
sS'2015-02-11'
p849
I0
sS'2015-02-10'
p850
I0
sS'2007-05-08'
p851
I0
sS'2007-05-09'
p852
I0
sS'2008-09-30'
p853
I0
sS'2009-11-22'
p854
I0
sS'2009-11-21'
p855
I0
sS'2009-11-20'
p856
I0
sS'2009-11-27'
p857
I0
sS'2009-11-26'
p858
I0
sS'2009-11-25'
p859
I0
sS'2009-11-24'
p860
I0
sS'2014-07-08'
p861
I0
sS'2014-07-09'
p862
I0
sS'2009-11-29'
p863
I0
sS'2009-11-28'
p864
I0
sS'2012-10-08'
p865
I0
sS'2011-10-01'
p866
I0
sS'2011-08-21'
p867
I0
sS'2007-09-11'
p868
I0
sS'2007-09-10'
p869
I0
sS'2007-09-13'
p870
I0
sS'2007-09-12'
p871
I0
sS'2007-09-15'
p872
I0
sS'2007-09-14'
p873
I0
sS'2007-09-17'
p874
I0
sS'2007-09-16'
p875
I0
sS'2007-09-19'
p876
I0
sS'2007-09-18'
p877
I0
sS'2012-10-09'
p878
I0
sS'2015-04-30'
p879
I0
sS'2007-02-14'
p880
I0
sS'2007-02-15'
p881
I0
sS'2007-02-16'
p882
I0
sS'2007-02-17'
p883
I0
sS'2007-02-10'
p884
I0
sS'2007-02-11'
p885
I0
sS'2007-02-12'
p886
I0
sS'2007-02-13'
p887
I0
sS'2007-02-18'
p888
I0
sS'2007-02-19'
p889
I0
sS'2011-10-09'
p890
I0
sS'2007-06-07'
p891
F2.032
sS'2007-06-06'
p892
I0
sS'2007-06-05'
p893
I0
sS'2007-06-04'
p894
I0
sS'2007-06-03'
p895
I0
sS'2007-06-02'
p896
I0
sS'2007-06-01'
p897
I0
sS'2009-04-04'
p898
I0
sS'2006-08-26'
p899
I0
sS'2006-08-27'
p900
I0
sS'2006-08-24'
p901
I0
sS'2006-08-25'
p902
I0
sS'2006-08-22'
p903
I0
sS'2006-08-23'
p904
I0
sS'2007-06-09'
p905
I0
sS'2007-06-08'
p906
I0
sS'2014-04-26'
p907
I0
sS'2013-05-21'
p908
I0
sS'2014-05-24'
p909
I0
sS'2014-05-25'
p910
I0
sS'2010-06-18'
p911
I0
sS'2010-06-19'
p912
I0
sS'2011-03-16'
p913
I0
sS'2011-03-17'
p914
I0
sS'2011-03-14'
p915
I0
sS'2011-03-15'
p916
I0
sS'2011-03-12'
p917
I0
sS'2011-03-13'
p918
I0
sS'2011-03-10'
p919
I0
sS'2011-03-11'
p920
I0
sS'2010-01-30'
p921
I0
sS'2011-03-18'
p922
I0
sS'2011-03-19'
p923
I0
sS'2012-11-19'
p924
I0
sS'2012-10-02'
p925
I0
sS'2010-06-10'
p926
I0
sS'2010-06-11'
p927
I0
sS'2015-03-26'
p928
I0
sS'2015-05-18'
p929
I0
sS'2011-06-29'
p930
I0
sS'2010-04-18'
p931
I0
sS'2010-04-19'
p932
I0
sS'2010-04-12'
p933
I0
sS'2010-04-13'
p934
I0
sS'2010-04-10'
p935
I0
sS'2010-04-11'
p936
I0
sS'2010-04-16'
p937
I0
sS'2010-04-17'
p938
I0
sS'2010-04-14'
p939
I0
sS'2010-04-15'
p940
I0
sS'2008-10-14'
p941
I0
sS'2008-10-15'
p942
I0
sS'2008-10-16'
p943
I0
sS'2008-10-17'
p944
I0
sS'2008-10-10'
p945
I0
sS'2008-10-11'
p946
I0
sS'2008-10-12'
p947
I0
sS'2008-10-13'
p948
I0
sS'2008-10-18'
p949
I0
sS'2008-10-19'
p950
I0
sS'2010-03-26'
p951
I0
sS'2010-03-27'
p952
I0
sS'2010-03-24'
p953
I0
sS'2010-03-25'
p954
I0
sS'2006-03-09'
p955
I0
sS'2006-03-08'
p956
I0
sS'2010-03-20'
p957
I0
sS'2010-03-21'
p958
I0
sS'2006-03-05'
p959
I0
sS'2006-03-04'
p960
I0
sS'2006-03-07'
p961
I0
sS'2006-03-06'
p962
I0
sS'2006-03-01'
p963
I0
sS'2006-03-03'
p964
I0
sS'2006-03-02'
p965
I0
sS'2013-10-26'
p966
I0
sS'2015-02-19'
p967
I0
sS'2012-07-15'
p968
I0
sS'2013-10-28'
p969
I0
sS'2012-07-14'
p970
I0
sS'2012-10-06'
p971
I0
sS'2012-07-17'
p972
I0
sS'2015-05-02'
p973
I0
sS'2012-07-16'
p974
I0
sS'2012-07-11'
p975
I0
sS'2012-07-10'
p976
I0
sS'2011-04-08'
p977
I0
sS'2011-04-09'
p978
I0
sS'2012-10-07'
p979
I0
sS'2011-04-04'
p980
I0
sS'2011-04-05'
p981
I0
sS'2011-04-06'
p982
I0
sS'2011-04-07'
p983
I0
sS'2011-04-01'
p984
I0
sS'2011-04-02'
p985
I0
sS'2011-04-03'
p986
I0
sS'2012-10-04'
p987
I0
sS'2015-09-07'
p988
F1.016
sS'2015-09-06'
p989
F0.254
sS'2015-09-05'
p990
I0
sS'2015-09-04'
p991
I0
sS'2015-09-03'
p992
I0
sS'2015-09-02'
p993
I0
sS'2015-09-01'
p994
I0
sS'2007-06-14'
p995
I0
sS'2015-09-09'
p996
I0
sS'2007-06-15'
p997
I0
sS'2009-08-29'
p998
I0
sS'2009-08-28'
p999
I0
sS'2009-08-25'
p1000
I0
sS'2009-08-24'
p1001
I0
sS'2009-08-27'
p1002
I0
sS'2009-08-26'
p1003
I0
sS'2009-08-21'
p1004
I0
sS'2009-08-20'
p1005
I0
sS'2009-08-23'
p1006
I0
sS'2009-08-22'
p1007
I0
sS'2008-02-01'
p1008
I0
sS'2008-02-02'
p1009
I0
sS'2008-02-03'
p1010
I0
sS'2008-02-04'
p1011
I0
sS'2008-02-05'
p1012
I0
sS'2008-02-06'
p1013
I0
sS'2008-02-07'
p1014
I0
sS'2008-02-08'
p1015
I0
sS'2008-02-09'
p1016
I0
sS'2006-11-05'
p1017
I0
sS'2011-06-21'
p1018
I0
sS'2015-06-02'
p1019
I0
sS'2007-11-09'
p1020
I0
sS'2007-11-08'
p1021
I0
sS'2007-11-07'
p1022
I0
sS'2007-11-06'
p1023
I0
sS'2007-11-05'
p1024
I0
sS'2007-11-04'
p1025
I0
sS'2007-11-03'
p1026
I0
sS'2007-11-02'
p1027
I0
sS'2007-11-01'
p1028
I0
sS'2009-05-24'
p1029
I0
sS'2012-02-26'
p1030
I0
sS'2008-01-29'
p1031
I0
sS'2008-01-28'
p1032
I0
sS'2008-01-27'
p1033
I0
sS'2008-01-26'
p1034
I0
sS'2008-01-25'
p1035
I0
sS'2008-01-24'
p1036
I0
sS'2008-01-23'
p1037
I0
sS'2008-01-22'
p1038
I0
sS'2008-01-21'
p1039
I0
sS'2008-01-20'
p1040
I0
sS'2011-08-08'
p1041
F0.762
sS'2011-08-09'
p1042
I0
sS'2015-06-26'
p1043
I0
sS'2015-06-27'
p1044
I0
sS'2015-06-20'
p1045
I0
sS'2015-06-21'
p1046
I0
sS'2015-06-22'
p1047
I0
sS'2015-06-23'
p1048
I0
sS'2011-08-01'
p1049
I0
sS'2011-08-02'
p1050
F2.286
sS'2011-08-03'
p1051
F4.064
sS'2011-08-04'
p1052
I0
sS'2011-08-05'
p1053
I0
sS'2011-08-06'
p1054
I0
sS'2011-08-07'
p1055
I0
sS'2009-07-02'
p1056
F1.016
sS'2009-07-03'
p1057
F0.762
sS'2009-07-01'
p1058
I0
sS'2009-07-06'
p1059
I0
sS'2009-07-07'
p1060
I0
sS'2006-11-08'
p1061
I0
sS'2006-11-09'
p1062
I0
sS'2006-11-06'
p1063
I0
sS'2007-01-25'
p1064
I0
sS'2006-11-04'
p1065
I0
sS'2009-07-09'
p1066
I0
sS'2007-01-20'
p1067
I0
sS'2007-01-21'
p1068
I0
sS'2007-01-22'
p1069
I0
sS'2007-01-23'
p1070
I0
sS'2014-02-22'
p1071
I0
sS'2011-06-16'
p1072
I0
sS'2011-06-10'
p1073
I0
sS'2007-05-15'
p1074
I0
sS'2007-05-14'
p1075
I0
sS'2007-05-17'
p1076
I0
sS'2007-05-16'
p1077
I0
sS'2007-05-11'
p1078
I0
sS'2007-05-10'
p1079
I0
sS'2007-05-13'
p1080
I0
sS'2007-05-12'
p1081
I0
sS'2015-02-28'
p1082
I0
sS'2012-09-01'
p1083
I0
sS'2012-09-02'
p1084
I0
sS'2011-06-12'
p1085
I0
sS'2007-05-19'
p1086
I0
sS'2007-05-18'
p1087
I0
sS'2012-09-06'
p1088
I0
sS'2012-09-07'
p1089
I0
sS'2008-09-27'
p1090
I0
sS'2008-09-26'
p1091
I0
sS'2008-09-25'
p1092
I0
sS'2008-09-24'
p1093
I0
sS'2008-09-23'
p1094
F0.762
sS'2008-09-22'
p1095
I0
sS'2008-09-21'
p1096
I0
sS'2008-09-20'
p1097
I0
sS'2013-11-22'
p1098
I0
sS'2013-11-23'
p1099
I0
sS'2013-11-20'
p1100
I0
sS'2013-11-21'
p1101
I0
sS'2013-11-26'
p1102
I0
sS'2013-11-27'
p1103
I0
sS'2008-09-29'
p1104
I0
sS'2008-09-28'
p1105
I0
sS'2011-06-19'
p1106
I0
sS'2011-06-18'
p1107
I0
sS'2007-09-24'
p1108
F0.762
sS'2007-09-25'
p1109
F1.27
sS'2007-02-09'
p1110
I0
sS'2007-02-08'
p1111
I0
sS'2007-09-20'
p1112
I0
sS'2007-09-21'
p1113
I0
sS'2007-09-22'
p1114
I0
sS'2007-09-23'
p1115
I0
sS'2007-02-03'
p1116
I0
sS'2007-02-02'
p1117
I0
sS'2007-02-01'
p1118
I0
sS'2012-10-01'
p1119
I0
sS'2007-10-27'
p1120
I0
sS'2007-02-06'
p1121
I0
sS'2007-02-05'
p1122
I0
sS'2007-02-04'
p1123
I0
sS'2013-04-29'
p1124
I0
sS'2014-06-07'
p1125
I0
sS'2014-06-06'
p1126
I0
sS'2014-06-05'
p1127
I0
sS'2014-06-04'
p1128
F1.016
sS'2015-03-03'
p1129
I0
sS'2009-06-29'
p1130
I0
sS'2009-06-28'
p1131
I0
sS'2006-08-30'
p1132
I0
sS'2010-07-22'
p1133
I0
sS'2010-07-23'
p1134
I0
sS'2010-07-20'
p1135
F3.048
sS'2010-07-21'
p1136
I0
sS'2010-07-26'
p1137
I0
sS'2010-07-27'
p1138
F4.318
sS'2010-07-24'
p1139
I0
sS'2010-07-25'
p1140
I0
sS'2010-07-28'
p1141
F2.794
sS'2010-07-29'
p1142
I0
sS'2011-03-05'
p1143
I0
sS'2011-03-04'
p1144
I0
sS'2011-03-07'
p1145
I0
sS'2011-03-06'
p1146
I0
sS'2011-03-01'
p1147
I0
sS'2011-03-03'
p1148
I0
sS'2011-03-02'
p1149
I0
sS'2011-03-09'
p1150
I0
sS'2011-03-08'
p1151
I0
sS'2006-11-23'
p1152
I0
sS'2014-09-30'
p1153
F0.254
sS'2013-07-30'
p1154
I0
sS'2011-07-12'
p1155
I0
sS'2011-07-13'
p1156
I0
sS'2011-07-10'
p1157
I0
sS'2011-07-11'
p1158
I0
sS'2011-07-16'
p1159
I0
sS'2011-07-17'
p1160
I0
sS'2011-07-14'
p1161
I0
sS'2011-07-15'
p1162
I0
sS'2011-07-18'
p1163
I0
sS'2011-07-19'
p1164
I0
sS'2015-05-01'
p1165
I0
sS'2010-04-09'
p1166
I0
sS'2010-04-08'
p1167
I0
sS'2008-10-09'
p1168
I0
sS'2008-10-08'
p1169
I0
sS'2008-10-03'
p1170
I0
sS'2008-10-02'
p1171
I0
sS'2008-10-01'
p1172
I0
sS'2010-04-02'
p1173
I0
sS'2008-10-07'
p1174
I0
sS'2008-10-06'
p1175
I0
sS'2008-10-05'
p1176
I0
sS'2008-10-04'
p1177
I0
sS'2015-10-04'
p1178
I0
sS'2015-05-04'
p1179
I0
sS'2013-03-30'
p1180
I0
sS'2006-03-30'
p1181
I0
sS'2010-03-30'
p1182
I0
sS'2011-05-29'
p1183
I0
sS'2014-07-15'
p1184
I0
sS'2015-05-09'
p1185
I0
sS'2011-05-28'
p1186
I0
sS'2015-10-07'
p1187
I0
sS'2012-01-17'
p1188
I0
sS'2012-01-16'
p1189
I0
sS'2012-01-15'
p1190
I0
sS'2012-01-14'
p1191
I0
sS'2012-01-13'
p1192
I0
sS'2011-05-27'
p1193
I0
sS'2015-10-06'
p1194
I0
sS'2012-01-12'
p1195
I0
sS'2015-01-18'
p1196
I0
sS'2011-05-26'
p1197
I0
sS'2012-01-11'
p1198
I0
sS'2015-01-19'
p1199
I0
sS'2012-01-10'
p1200
I0
sS'2014-04-15'
p1201
I0
sS'2015-10-01'
p1202
I0
sS'2011-04-13'
p1203
I0
sS'2011-04-12'
p1204
I0
sS'2011-04-11'
p1205
I0
sS'2011-04-10'
p1206
I0
sS'2011-04-17'
p1207
I0
sS'2011-04-16'
p1208
I0
sS'2011-04-15'
p1209
I0
sS'2011-04-14'
p1210
I0
sS'2011-04-19'
p1211
I0
sS'2011-04-18'
p1212
I0
sS'2014-07-26'
p1213
I0
sS'2015-01-11'
p1214
I0
sS'2014-02-11'
p1215
I0
sS'2015-01-16'
p1216
I0
sS'2014-04-19'
p1217
I0
sS'2012-01-21'
p1218
I0
sS'2009-08-10'
p1219
I0
sS'2009-08-11'
p1220
I0
sS'2009-08-12'
p1221
I0
sS'2009-08-13'
p1222
I0
sS'2009-08-14'
p1223
I0
sS'2009-08-15'
p1224
I0
sS'2009-08-16'
p1225
I0
sS'2009-08-17'
p1226
I0
sS'2009-08-18'
p1227
I0
sS'2009-08-19'
p1228
I0
sS'2014-02-17'
p1229
I0
sS'2008-02-17'
p1230
I0
sS'2008-02-16'
p1231
I0
sS'2008-02-15'
p1232
I0
sS'2008-02-14'
p1233
I0
sS'2008-02-13'
p1234
I0
sS'2008-02-12'
p1235
I0
sS'2008-02-11'
p1236
I0
sS'2008-02-10'
p1237
I0
sS'2013-08-06'
p1238
I0
sS'2013-08-07'
p1239
I0
sS'2013-08-04'
p1240
I0
sS'2013-08-05'
p1241
I0
sS'2013-08-02'
p1242
I0
sS'2013-08-03'
p1243
I0
sS'2008-02-19'
p1244
I0
sS'2008-02-18'
p1245
I0
sS'2015-11-19'
p1246
I0
sS'2006-01-30'
p1247
I0
sS'2010-11-30'
p1248
I0
sS'2015-11-18'
p1249
I0
sS'2013-08-08'
p1250
I0
sS'2013-08-09'
p1251
I0
sS'2014-01-24'
p1252
I0
sS'2014-07-27'
p1253
I0
sS'2015-06-30'
p1254
I0
sS'2012-05-08'
p1255
I0
sS'2012-05-09'
p1256
I0
sS'2011-08-19'
p1257
I0
sS'2011-08-18'
p1258
I0
sS'2011-08-17'
p1259
I0
sS'2011-08-16'
p1260
I0
sS'2011-08-15'
p1261
I0
sS'2011-08-14'
p1262
I0
sS'2011-08-13'
p1263
I0
sS'2011-08-12'
p1264
I0
sS'2011-08-11'
p1265
I0
sS'2011-08-10'
p1266
I0
sS'2009-07-11'
p1267
I0
sS'2009-07-10'
p1268
F1.778
sS'2009-07-13'
p1269
I0
sS'2007-01-30'
p1270
I0
sS'2006-11-19'
p1271
I0
sS'2006-11-18'
p1272
I0
sS'2009-07-17'
p1273
I0
sS'2009-07-16'
p1274
I0
sS'2009-07-19'
p1275
I0
sS'2009-07-18'
p1276
I0
sS'2006-11-17'
p1277
I0
sS'2006-11-16'
p1278
I0
sS'2006-11-11'
p1279
I0
sS'2006-11-10'
p1280
I0
sS'2006-11-13'
p1281
I0
sS'2006-11-12'
p1282
I0
sS'2007-05-28'
p1283
I0
sS'2007-05-29'
p1284
I0
sS'2014-04-22'
p1285
I0
sS'2012-11-26'
p1286
I0
sS'2007-05-20'
p1287
I0
sS'2007-05-21'
p1288
I0
sS'2007-05-22'
p1289
I0
sS'2007-05-23'
p1290
I0
sS'2007-05-24'
p1291
I0
sS'2007-05-25'
p1292
I0
sS'2007-05-26'
p1293
I0
sS'2007-05-27'
p1294
I0
sS'2009-07-30'
p1295
I0
sS'2012-09-19'
p1296
I0
sS'2012-09-18'
p1297
I0
sS'2012-09-17'
p1298
I0
sS'2012-09-16'
p1299
I0
sS'2012-09-15'
p1300
I0
sS'2012-09-14'
p1301
I0
sS'2012-09-13'
p1302
I0
sS'2012-09-12'
p1303
I0
sS'2012-09-11'
p1304
I0
sS'2009-11-17'
p1305
I0
sS'2012-11-21'
p1306
I0
sS'2010-10-23'
p1307
I0
sS'2012-11-20'
p1308
I0
sS'2011-11-06'
p1309
I0
sS'2011-11-07'
p1310
I0
sS'2011-11-04'
p1311
I0
sS'2011-11-05'
p1312
I0
sS'2011-11-02'
p1313
I0
sS'2011-11-03'
p1314
I0
sS'2015-10-10'
p1315
I0
sS'2011-11-01'
p1316
I0
sS'2015-10-08'
p1317
I0
sS'2007-09-30'
p1318
I0
sS'2011-11-08'
p1319
I0
sS'2011-11-09'
p1320
I0
sS'2012-10-19'
p1321
I0
sS'2012-10-18'
p1322
I0
sS'2012-10-11'
p1323
I0
sS'2012-10-10'
p1324
I0
sS'2012-10-13'
p1325
I0
sS'2012-10-12'
p1326
I0
sS'2012-10-15'
p1327
I0
sS'2011-05-30'
p1328
I0
sS'2012-10-17'
p1329
I0
sS'2012-10-16'
p1330
I0
sS'2014-01-25'
p1331
I0
sS'2010-10-21'
p1332
I0
sS'2014-07-24'
p1333
I0
sS'2014-07-18'
p1334
I0
sS'2015-04-17'
p1335
I0
sS'2006-08-01'
p1336
I0
sS'2006-08-02'
p1337
I0
sS'2006-08-03'
p1338
I0
sS'2006-08-04'
p1339
I0
sS'2006-08-05'
p1340
I0
sS'2006-08-06'
p1341
I0
sS'2006-08-07'
p1342
I0
sS'2006-08-08'
p1343
I0
sS'2006-08-09'
p1344
I0
sS'2013-04-01'
p1345
I0
sS'2013-04-06'
p1346
I0
sS'2013-04-07'
p1347
I0
sS'2013-04-04'
p1348
I0
sS'2013-04-05'
p1349
I0
sS'2010-10-27'
p1350
I0
sS'2009-03-08'
p1351
I0
sS'2009-03-09'
p1352
I0
sS'2009-03-06'
p1353
I0
sS'2009-03-07'
p1354
I0
sS'2009-03-04'
p1355
I0
sS'2009-03-05'
p1356
I0
sS'2009-03-02'
p1357
I0
sS'2009-03-03'
p1358
I0
sS'2009-03-01'
p1359
I0
sS'2010-07-30'
p1360
I0
sS'2011-03-30'
p1361
I0
sS'2013-04-24'
p1362
I0
sS'2013-04-25'
p1363
I0
sS'2013-04-26'
p1364
I0
sS'2011-06-20'
p1365
I0
sS'2014-01-28'
p1366
I0
sS'2013-04-27'
p1367
I0
sS'2014-01-29'
p1368
I0
sS'2013-04-20'
p1369
I0
sS'2010-10-25'
p1370
I0
sS'2013-04-21'
p1371
I0
sS'2013-07-21'
p1372
I0
sS'2013-07-20'
p1373
I0
sS'2013-07-23'
p1374
I0
sS'2013-07-22'
p1375
I0
sS'2013-07-25'
p1376
I0
sS'2013-04-22'
p1377
I0
sS'2013-07-27'
p1378
I0
sS'2013-07-26'
p1379
I0
sS'2013-07-29'
p1380
I0
sS'2013-07-28'
p1381
I0
sS'2013-04-23'
p1382
I0
sS'2011-07-01'
p1383
I0
sS'2012-02-17'
p1384
I0
sS'2011-07-03'
p1385
I0
sS'2011-07-02'
p1386
I0
sS'2011-07-05'
p1387
I0
sS'2011-07-04'
p1388
I0
sS'2011-07-07'
p1389
I0
sS'2011-07-06'
p1390
I0
sS'2011-07-09'
p1391
I0
sS'2011-07-08'
p1392
I0
sS'2012-02-18'
p1393
I0
sS'2012-02-19'
p1394
I0
sS'2014-01-20'
p1395
I0
sS'2010-04-30'
p1396
I0
sS'2014-01-22'
p1397
I0
sS'2015-04-12'
p1398
I0
sS'2010-03-08'
p1399
I0
sS'2010-03-09'
p1400
I0
sS'2014-01-23'
p1401
I0
sS'2013-03-29'
p1402
I0
sS'2013-03-28'
p1403
I0
sS'2007-03-01'
p1404
I0
sS'2013-03-25'
p1405
I0
sS'2010-03-01'
p1406
I0
sS'2010-03-02'
p1407
I0
sS'2010-03-03'
p1408
I0
sS'2010-03-04'
p1409
I0
sS'2010-03-05'
p1410
I0
sS'2010-03-06'
p1411
I0
sS'2010-03-07'
p1412
I0
sS'2006-03-27'
p1413
I0
sS'2006-03-26'
p1414
I0
sS'2006-03-25'
p1415
I0
sS'2006-03-24'
p1416
I0
sS'2006-03-23'
p1417
I0
sS'2006-03-22'
p1418
I0
sS'2006-03-21'
p1419
I0
sS'2006-03-20'
p1420
I0
sS'2014-01-27'
p1421
I0
sS'2006-03-29'
p1422
I0
sS'2006-03-28'
p1423
I0
sS'2012-11-28'
p1424
I0
sS'2015-11-17'
p1425
I0
sS'2007-03-07'
p1426
I0
sS'2015-10-17'
p1427
I0
sS'2007-03-09'
p1428
I0
sS'2014-10-03'
p1429
I0
sS'2011-11-28'
p1430
I0
sS'2010-11-21'
p1431
I0
sS'2015-11-16'
p1432
I0
sS'2014-07-02'
p1433
I0
sS'2015-10-18'
p1434
I0
sS'2008-04-30'
p1435
I0
sS'2015-10-13'
p1436
I0
sS'2010-11-20'
p1437
I0
sS'2014-07-03'
p1438
I0
sS'2011-11-20'
p1439
I0
sS'2011-11-21'
p1440
I0
sS'2012-11-25'
p1441
I0
sS'2014-07-22'
p1442
I0
sS'2012-06-12'
p1443
I0
sS'2012-06-13'
p1444
I0
sS'2012-06-10'
p1445
I0
sS'2012-06-11'
p1446
I0
sS'2012-06-16'
p1447
I0
sS'2012-06-17'
p1448
I0
sS'2012-06-14'
p1449
I0
sS'2012-06-15'
p1450
I0
sS'2012-06-18'
p1451
I0
sS'2012-06-19'
p1452
I0
sS'2009-08-07'
p1453
I0
sS'2009-08-06'
p1454
I0
sS'2009-08-05'
p1455
I0
sS'2009-08-04'
p1456
I0
sS'2009-08-03'
p1457
I0
sS'2009-08-02'
p1458
I0
sS'2009-08-01'
p1459
I0
sS'2015-08-22'
p1460
I0
sS'2015-08-23'
p1461
I0
sS'2015-08-20'
p1462
I0
sS'2015-08-21'
p1463
I0
sS'2015-08-26'
p1464
I0
sS'2015-08-27'
p1465
I0
sS'2009-08-09'
p1466
I0
sS'2009-08-08'
p1467
I0
sS'2013-08-19'
p1468
I0
sS'2013-08-18'
p1469
I0
sS'2013-08-15'
p1470
I0
sS'2013-08-14'
p1471
I0
sS'2013-08-17'
p1472
F0.508
sS'2013-08-16'
p1473
I0
sS'2013-08-11'
p1474
I0
sS'2013-08-10'
p1475
F3.556
sS'2013-08-13'
p1476
I0
sS'2012-11-23'
p1477
I0
sS'2006-01-29'
p1478
I0
sS'2006-01-28'
p1479
I0
sS'2010-11-29'
p1480
I0
sS'2010-11-28'
p1481
I0
sS'2006-01-21'
p1482
I0
sS'2006-01-20'
p1483
I0
sS'2006-01-23'
p1484
I0
sS'2006-01-22'
p1485
I0
sS'2006-01-25'
p1486
I0
sS'2006-01-24'
p1487
I0
sS'2006-01-27'
p1488
I0
sS'2006-01-26'
p1489
I0
sS'2012-11-22'
p1490
I0
sS'2010-10-09'
p1491
I0
sS'2015-04-26'
p1492
I0
sS'2015-04-27'
p1493
I0
sS'2015-04-24'
p1494
I0
sS'2015-04-25'
p1495
I0
sS'2015-04-22'
p1496
I0
sS'2015-04-23'
p1497
I0
sS'2015-04-20'
p1498
I0
sS'2015-04-21'
p1499
I0
sS'2015-04-28'
p1500
I0
sS'2015-04-29'
p1501
I0
sS'2012-05-04'
p1502
I0
sS'2012-05-05'
p1503
I0
sS'2012-05-06'
p1504
I0
sS'2010-10-07'
p1505
I0
sS'2009-04-05'
p1506
I0
sS'2012-05-01'
p1507
I0
sS'2012-05-13'
p1508
I0
sS'2012-05-12'
p1509
I0
sS'2012-05-11'
p1510
I0
sS'2012-05-10'
p1511
I0
sS'2012-05-17'
p1512
I0
sS'2008-09-14'
p1513
I0
sS'2012-05-15'
p1514
I0
sS'2012-05-14'
p1515
I0
sS'2012-05-19'
p1516
I0
sS'2012-05-03'
p1517
I0
sS'2014-07-23'
p1518
I0
sS'2009-07-24'
p1519
I0
sS'2006-05-24'
p1520
I0
sS'2009-07-26'
p1521
I0
sS'2009-07-27'
p1522
I0
sS'2009-07-20'
p1523
I0
sS'2009-07-21'
p1524
I0
sS'2006-05-23'
p1525
I0
sS'2009-07-23'
p1526
I0
sS'2006-11-28'
p1527
I0
sS'2006-11-29'
p1528
I0
sS'2009-07-28'
p1529
I0
sS'2009-07-29'
p1530
I0
sS'2015-11-08'
p1531
I0
sS'2009-07-12'
p1532
I0
sS'2009-07-15'
p1533
I0
sS'2009-07-14'
p1534
I0
sS'2015-03-18'
p1535
I0
sS'2015-03-19'
p1536
I0
sS'2006-05-30'
p1537
I0
sS'2015-03-12'
p1538
I0
sS'2015-03-13'
p1539
I0
sS'2015-03-10'
p1540
I0
sS'2012-11-02'
p1541
I0
sS'2015-03-16'
p1542
I0
sS'2014-10-15'
p1543
I0
sS'2015-03-14'
p1544
I0
sS'2015-03-15'
p1545
I0
sS'2006-11-15'
p1546
I0
sS'2013-11-08'
p1547
I0
sS'2013-11-09'
p1548
I0
sS'2006-11-14'
p1549
I0
sS'2013-11-04'
p1550
I0
sS'2013-11-05'
p1551
I0
sS'2013-11-06'
p1552
I0
sS'2013-11-07'
p1553
I0
sS'2013-11-01'
p1554
I0
sS'2013-11-02'
p1555
I0
sS'2013-11-03'
p1556
I0
sS'2011-11-15'
p1557
I0
sS'2011-11-14'
p1558
I0
sS'2011-11-17'
p1559
I0
sS'2011-11-16'
p1560
I0
sS'2011-11-11'
p1561
I0
sS'2011-11-10'
p1562
I0
sS'2011-11-13'
p1563
I0
sS'2011-11-12'
p1564
I0
sS'2012-11-09'
p1565
I0
sS'2011-11-19'
p1566
I0
sS'2011-11-18'
p1567
I0
sS'2012-11-08'
p1568
I0
sS'2013-07-08'
p1569
I0
sS'2012-10-28'
p1570
I0
sS'2012-10-29'
p1571
I0
sS'2013-02-23'
p1572
I0
sS'2012-10-24'
p1573
I0
sS'2012-10-25'
p1574
I0
sS'2012-10-26'
p1575
I0
sS'2009-05-10'
p1576
I0
sS'2012-10-20'
p1577
I0
sS'2012-10-21'
p1578
I0
sS'2012-10-22'
p1579
I0
sS'2012-10-23'
p1580
I0
sS'2007-07-28'
p1581
F0.508
sS'2007-07-29'
p1582
I0
sS'2007-07-22'
p1583
I0
sS'2007-07-23'
p1584
I0
sS'2007-07-20'
p1585
I0
sS'2007-07-21'
p1586
I0
sS'2007-07-26'
p1587
I0
sS'2007-07-27'
p1588
I0
sS'2007-07-24'
p1589
I0
sS'2007-07-25'
p1590
I0
sS'2014-10-19'
p1591
I0
sS'2013-07-02'
p1592
I0
sS'2013-02-25'
p1593
I0
sS'2014-06-30'
p1594
I0
sS'2006-08-17'
p1595
I0
sS'2006-08-16'
p1596
I0
sS'2006-08-15'
p1597
I0
sS'2006-08-14'
p1598
I0
sS'2006-08-13'
p1599
I0
sS'2006-08-12'
p1600
I0
sS'2006-08-11'
p1601
I0
sS'2006-08-10'
p1602
I0
sS'2013-04-11'
p1603
I0
sS'2013-04-10'
p1604
I0
sS'2013-04-13'
p1605
I0
sS'2013-04-12'
p1606
I0
sS'2013-04-15'
p1607
I0
sS'2013-04-14'
p1608
I0
sS'2006-08-19'
p1609
I0
sS'2006-08-18'
p1610
I0
sS'2009-03-19'
p1611
I0
sS'2009-03-18'
p1612
I0
sS'2009-03-15'
p1613
I0
sS'2009-03-14'
p1614
I0
sS'2009-03-17'
p1615
I0
sS'2009-03-16'
p1616
I0
sS'2009-03-11'
p1617
I0
sS'2009-03-10'
p1618
I0
sS'2009-03-13'
p1619
I0
sS'2009-03-12'
p1620
I0
sS'2010-07-04'
p1621
I0
sS'2010-07-05'
p1622
I0
sS'2010-07-06'
p1623
I0
sS'2010-07-07'
p1624
I0
sS'2015-11-02'
p1625
I0
sS'2010-07-01'
p1626
I0
sS'2010-07-02'
p1627
I0
sS'2010-07-03'
p1628
I0
sS'2011-03-27'
p1629
I0
sS'2011-03-26'
p1630
I0
sS'2011-03-25'
p1631
I0
sS'2011-03-24'
p1632
I0
sS'2010-07-08'
p1633
F1.27
sS'2010-07-09'
p1634
I0
sS'2011-03-21'
p1635
I0
sS'2011-03-20'
p1636
I0
sS'2015-04-01'
p1637
I0
sS'2015-11-03'
p1638
I0
sS'2013-07-14'
p1639
I0
sS'2008-06-22'
p1640
I0
sS'2013-07-16'
p1641
I0
sS'2013-07-17'
p1642
I0
sS'2013-07-10'
p1643
F0.254
sS'2013-07-11'
p1644
F3.302
sS'2013-07-12'
p1645
I0
sS'2009-06-04'
p1646
I0
sS'2013-07-18'
p1647
I0
sS'2008-06-20'
p1648
F0.254
sS'2012-02-05'
p1649
I0
sS'2012-02-04'
p1650
I0
sS'2012-02-07'
p1651
I0
sS'2008-06-21'
p1652
I0
sS'2011-07-30'
p1653
I0
sS'2012-02-03'
p1654
I0
sS'2012-02-02'
p1655
I0
sS'2008-06-26'
p1656
I0
sS'2012-02-09'
p1657
I0
sS'2012-02-08'
p1658
I0
sS'2010-04-23'
p1659
I0
sS'2010-04-22'
p1660
I0
sS'2010-04-21'
p1661
I0
sS'2010-04-20'
p1662
I0
sS'2010-04-27'
p1663
I0
sS'2008-06-24'
p1664
I0
sS'2010-04-25'
p1665
I0
sS'2010-04-24'
p1666
I0
sS'2010-04-29'
p1667
I0
sS'2008-06-25'
p1668
I0
sS'2014-03-09'
p1669
I0
sS'2013-03-10'
p1670
I0
sS'2013-03-11'
p1671
I0
sS'2013-03-12'
p1672
I0
sS'2013-03-13'
p1673
I0
sS'2013-03-14'
p1674
I0
sS'2013-03-15'
p1675
I0
sS'2010-03-19'
p1676
I0
sS'2010-03-18'
p1677
I0
sS'2010-03-17'
p1678
I0
sS'2010-03-16'
p1679
I0
sS'2010-03-15'
p1680
I0
sS'2010-03-14'
p1681
I0
sS'2010-03-13'
p1682
I0
sS'2010-03-12'
p1683
I0
sS'2010-03-11'
p1684
I0
sS'2010-03-10'
p1685
I0
sS'2014-07-14'
p1686
I0
sS'2013-10-08'
p1687
F0.508
sS'2014-03-07'
p1688
I0
sS'2013-11-30'
p1689
I0
sS'2007-10-19'
p1690
I0
sS'2006-05-26'
p1691
I0
sS'2015-05-29'
p1692
I0
sS'2011-06-22'
p1693
I0
sS'2014-09-11'
p1694
I0
sS'2015-10-14'
p1695
I0
sS'2014-09-10'
p1696
F5.588
sS'2009-07-04'
p1697
I0
sS'2015-10-15'
p1698
I0
sS'2015-10-12'
p1699
I0
sS'2013-05-13'
p1700
I0
sS'2012-02-25'
p1701
I0
sS'2013-05-11'
p1702
I0
sS'2015-09-12'
p1703
I0
sS'2009-07-05'
p1704
I0
sS'2012-06-03'
p1705
I0
sS'2012-06-02'
p1706
I0
sS'2012-06-05'
p1707
I0
sS'2012-06-04'
p1708
I0
sS'2012-06-07'
p1709
I0
sS'2012-06-06'
p1710
I0
sS'2012-06-09'
p1711
I0
sS'2012-06-08'
p1712
I0
sS'2014-10-24'
p1713
I0
sS'2014-10-25'
p1714
I0
sS'2014-10-22'
p1715
I0
sS'2014-10-23'
p1716
F0.254
sS'2014-10-20'
p1717
I0
sS'2014-10-21'
p1718
I0
sS'2015-08-30'
p1719
I0
sS'2013-08-20'
p1720
I0
sS'2013-08-21'
p1721
I0
sS'2013-08-22'
p1722
I0
sS'2013-08-23'
p1723
I0
sS'2013-08-24'
p1724
I0
sS'2013-08-25'
p1725
I0
sS'2013-08-26'
p1726
I0
sS'2013-08-27'
p1727
I0
sS'2013-08-28'
p1728
I0
sS'2013-08-29'
p1729
I0
sS'2015-05-26'
p1730
I0
sS'2010-11-10'
p1731
I0
sS'2010-11-11'
p1732
I0
sS'2010-11-12'
p1733
I0
sS'2010-02-22'
p1734
I0
sS'2006-01-18'
p1735
I0
sS'2006-01-19'
p1736
I0
sS'2010-11-16'
p1737
I0
sS'2010-11-17'
p1738
I0
sS'2006-01-14'
p1739
I0
sS'2006-01-15'
p1740
I0
sS'2006-01-16'
p1741
I0
sS'2006-01-17'
p1742
I0
sS'2006-01-10'
p1743
I0
sS'2006-01-11'
p1744
I0
sS'2006-01-12'
p1745
I0
sS'2006-01-13'
p1746
I0
sS'2014-05-28'
p1747
F18.542
sS'2010-08-16'
p1748
I0
sS'2010-08-17'
p1749
F1.016
sS'2010-08-14'
p1750
I0
sS'2010-08-15'
p1751
I0
sS'2010-08-12'
p1752
I0
sS'2010-08-13'
p1753
I0
sS'2010-08-10'
p1754
I0
sS'2010-08-11'
p1755
I0
sS'2010-08-18'
p1756
F4.318
sS'2010-08-19'
p1757
F2.794
sS'2014-05-29'
p1758
I0
sS'2015-05-27'
p1759
I0
sS'2014-10-18'
p1760
I0
sS'2013-03-20'
p1761
I0
sS'2012-10-14'
p1762
I0
sS'2006-11-30'
p1763
I0
sS'2015-11-09'
p1764
I0
sS'2015-03-09'
p1765
I0
sS'2015-03-08'
p1766
I0
sS'2015-03-01'
p1767
I0
sS'2006-05-29'
p1768
I0
sS'2015-03-02'
p1769
I0
sS'2015-03-05'
p1770
I0
sS'2015-03-04'
p1771
I0
sS'2015-03-07'
p1772
I0
sS'2015-03-06'
p1773
I0
sS'2013-11-13'
p1774
I0
sS'2013-11-12'
p1775
I0
sS'2013-11-11'
p1776
I0
sS'2013-11-10'
p1777
I0
sS'2013-11-17'
p1778
I0
sS'2013-11-16'
p1779
I0
sS'2013-11-15'
p1780
I0
sS'2013-11-14'
p1781
I0
sS'2013-11-19'
p1782
I0
sS'2013-11-18'
p1783
I0
sS'2011-09-30'
p1784
F0.762
sS'2012-10-30'
p1785
I0
sS'2008-03-30'
p1786
I0
sS'2007-07-30'
p1787
I0
sS'2006-05-18'
p1788
I0
sS'2006-05-19'
p1789
I0
sS'2012-05-16'
p1790
I0
sS'2006-05-10'
p1791
I0
sS'2006-05-11'
p1792
I0
sS'2006-05-12'
p1793
I0
sS'2006-05-13'
p1794
I0
sS'2006-05-14'
p1795
I0
sS'2006-05-15'
p1796
I0
sS'2006-05-16'
p1797
I0
sS'2006-05-17'
p1798
I0
sS'2014-06-21'
p1799
I0
sS'2014-06-20'
p1800
I0
sS'2014-06-23'
p1801
F1.27
sS'2014-06-22'
p1802
I0
sS'2014-06-25'
p1803
I0
sS'2014-06-24'
p1804
F3.302
sS'2014-06-27'
p1805
I0
sS'2014-06-26'
p1806
I0
sS'2014-06-29'
p1807
I0
sS'2014-06-28'
p1808
I0
sS'2008-07-29'
p1809
I0
sS'2008-07-28'
p1810
I0
sS'2008-07-25'
p1811
I0
sS'2008-07-24'
p1812
F0.254
sS'2008-07-27'
p1813
I0
sS'2008-07-26'
p1814
I0
sS'2008-07-21'
p1815
I0
sS'2008-07-20'
p1816
I0
sS'2008-07-23'
p1817
F1.27
sS'2008-07-22'
p1818
I0
sS'2014-05-08'
p1819
I0
sS'2014-05-09'
p1820
I0
sS'2014-05-02'
p1821
I0
sS'2014-05-03'
p1822
I0
sS'2014-05-01'
p1823
I0
sS'2014-05-06'
p1824
I0
sS'2014-05-07'
p1825
I0
sS'2014-05-04'
p1826
I0
sS'2014-05-05'
p1827
I0
sS'2009-03-20'
p1828
I0
sS'2009-03-21'
p1829
I0
sS'2009-03-22'
p1830
I0
sS'2009-03-23'
p1831
I0
sS'2009-03-24'
p1832
I0
sS'2009-03-25'
p1833
I0
sS'2009-03-26'
p1834
I0
sS'2009-03-27'
p1835
I0
sS'2009-03-28'
p1836
I0
sS'2009-03-29'
p1837
I0
sS'2011-11-22'
p1838
I0
sS'2011-11-23'
p1839
I0
sS'2011-11-24'
p1840
I0
sS'2011-11-25'
p1841
I0
sS'2011-11-26'
p1842
I0
sS'2011-11-27'
p1843
I0
sS'2006-10-18'
p1844
I0
sS'2006-10-19'
p1845
I0
sS'2006-10-12'
p1846
I0
sS'2006-10-13'
p1847
I0
sS'2006-10-10'
p1848
I0
sS'2006-10-11'
p1849
I0
sS'2006-10-16'
p1850
I0
sS'2006-10-17'
p1851
I0
sS'2006-10-14'
p1852
I0
sS'2006-10-15'
p1853
I0
sS'2012-03-24'
p1854
I0
sS'2012-03-25'
p1855
I0
sS'2012-03-26'
p1856
I0
sS'2013-07-09'
p1857
I0
sS'2012-03-27'
p1858
I0
sS'2013-07-03'
p1859
F0.254
sS'2012-03-20'
p1860
I0
sS'2013-07-01'
p1861
I0
sS'2013-07-07'
p1862
I0
sS'2013-07-06'
p1863
I0
sS'2013-07-05'
p1864
F0.508
sS'2012-03-21'
p1865
I0
sS'2012-03-22'
p1866
I0
sS'2012-08-30'
p1867
F0.508
sS'2012-03-23'
p1868
I0
sS'2014-01-06'
p1869
I0
sS'2014-01-07'
p1870
I0
sS'2014-01-04'
p1871
I0
sS'2014-01-05'
p1872
I0
sS'2014-01-02'
p1873
I0
sS'2014-01-03'
p1874
I0
sS'2014-01-01'
p1875
I0
sS'2014-01-08'
p1876
I0
sS'2014-01-09'
p1877
I0
sS'2013-03-07'
p1878
I0
sS'2013-03-06'
p1879
I0
sS'2013-03-05'
p1880
I0
sS'2013-03-04'
p1881
I0
sS'2013-03-03'
p1882
I0
sS'2013-03-02'
p1883
I0
sS'2013-03-01'
p1884
I0
sS'2012-01-30'
p1885
I0
sS'2013-03-09'
p1886
I0
sS'2013-03-08'
p1887
I0
sS'2010-07-19'
p1888
I0
sS'2010-07-18'
p1889
I0
sS'2010-07-13'
p1890
I0
sS'2010-07-12'
p1891
I0
sS'2010-07-11'
p1892
I0
sS'2010-07-10'
p1893
I0
sS'2010-07-17'
p1894
I0
sS'2010-07-16'
p1895
I0
sS'2010-07-15'
p1896
I0
sS'2010-07-14'
p1897
I0
sS'2015-02-09'
p1898
I0
sS'2013-04-02'
p1899
I0
sS'2013-04-03'
p1900
I0
sS'2011-07-29'
p1901
I0
sS'2011-07-28'
p1902
I0
sS'2011-07-23'
p1903
I0
sS'2011-07-22'
p1904
I0
sS'2011-07-21'
p1905
I0
sS'2011-07-20'
p1906
I0
sS'2011-07-27'
p1907
I0
sS'2011-07-26'
p1908
I0
sS'2011-07-25'
p1909
I0
sS'2011-07-24'
p1910
I0
sS'2012-06-30'
p1911
I0
sS'2014-10-30'
p1912
I0
sS'2015-08-08'
p1913
I0
sS'2015-08-09'
p1914
I0
sS'2015-08-04'
p1915
I0
sS'2015-08-05'
p1916
I0
sS'2015-08-06'
p1917
I0
sS'2015-08-07'
p1918
I0
sS'2015-08-01'
p1919
I0
sS'2015-08-02'
p1920
I0
sS'2015-08-03'
p1921
I0
sS'2009-09-04'
p1922
I0
sS'2009-09-05'
p1923
I0
sS'2009-09-06'
p1924
I0
sS'2006-01-03'
p1925
I0
sS'2006-01-02'
p1926
I0
sS'2006-01-01'
p1927
I0
sS'2009-09-07'
p1928
I0
sS'2006-01-07'
p1929
I0
sS'2006-01-06'
p1930
I0
sS'2006-01-05'
p1931
I0
sS'2006-01-04'
p1932
I0
sS'2006-01-09'
p1933
I0
sS'2006-01-08'
p1934
I0
sS'2010-11-09'
p1935
I0
sS'2009-09-01'
p1936
I0
sS'2009-09-02'
p1937
I0
sS'2009-09-03'
p1938
I0
sS'2010-08-05'
p1939
I0
sS'2010-08-04'
p1940
I0
sS'2010-08-07'
p1941
I0
sS'2010-08-06'
p1942
I0
sS'2010-08-01'
p1943
I0
sS'2010-08-03'
p1944
I0
sS'2010-08-02'
p1945
I0
sS'2010-08-09'
p1946
I0
sS'2010-08-08'
p1947
I0
sS'2014-07-20'
p1948
I0
sS'2009-09-28'
p1949
I0
sS'2009-09-29'
p1950
I0
sS'2009-09-22'
p1951
I0
sS'2009-09-23'
p1952
I0
sS'2009-09-20'
p1953
I0
sS'2009-09-21'
p1954
I0
sS'2009-09-26'
p1955
I0
sS'2009-09-27'
p1956
I0
sS'2009-09-24'
p1957
I0
sS'2009-09-25'
p1958
I0
sS'2013-09-04'
p1959
I0
sS'2015-06-13'
p1960
I0
sS'2015-04-08'
p1961
I0
sS'2015-04-09'
p1962
I0
sS'2015-06-12'
p1963
I0
sS'2009-11-01'
p1964
I0
sS'2015-04-02'
p1965
I0
sS'2015-04-03'
p1966
I0
sS'2015-04-04'
p1967
I0
sS'2015-04-05'
p1968
I0
sS'2015-04-06'
p1969
I0
sS'2015-04-07'
p1970
I0
sS'2011-09-29'
p1971
F1.27
sS'2011-09-28'
p1972
I0
sS'2011-09-21'
p1973
I0
sS'2011-09-20'
p1974
I0
sS'2011-09-23'
p1975
I0
sS'2011-09-22'
p1976
F1.524
sS'2011-09-25'
p1977
I0
sS'2011-09-24'
p1978
I0
sS'2011-09-27'
p1979
I0
sS'2011-09-26'
p1980
I0
sS'2008-08-02'
p1981
I0
sS'2008-08-03'
p1982
I0
sS'2008-08-01'
p1983
F0.762
sS'2008-08-06'
p1984
I0
sS'2008-08-07'
p1985
I0
sS'2008-08-04'
p1986
I0
sS'2008-08-05'
p1987
I0
sS'2008-08-08'
p1988
I0
sS'2008-08-09'
p1989
I0
sS'2010-10-20'
p1990
I0
sS'2008-03-21'
p1991
I0
sS'2008-03-20'
p1992
I0
sS'2008-03-23'
p1993
I0
sS'2008-03-22'
p1994
I0
sS'2008-03-25'
p1995
I0
sS'2008-03-24'
p1996
I0
sS'2008-03-27'
p1997
I0
sS'2008-03-26'
p1998
I0
sS'2008-03-29'
p1999
I0
sS'2008-03-28'
p2000
I0
sS'2007-07-06'
p2001
I0
sS'2007-07-07'
p2002
I0
sS'2007-07-01'
p2003
I0
sS'2007-07-02'
p2004
I0
sS'2007-07-03'
p2005
I0
sS'2010-10-24'
p2006
I0
sS'2006-05-09'
p2007
I0
sS'2006-05-08'
p2008
I0
sS'2006-05-07'
p2009
I0
sS'2006-05-06'
p2010
I0
sS'2006-05-05'
p2011
I0
sS'2006-05-04'
p2012
I0
sS'2006-05-03'
p2013
I0
sS'2006-05-02'
p2014
I0
sS'2006-05-01'
p2015
I0
sS'2014-06-14'
p2016
I0
sS'2014-06-15'
p2017
I0
sS'2014-06-16'
p2018
I0
sS'2014-06-17'
p2019
I0
sS'2014-06-10'
p2020
I0
sS'2014-06-11'
p2021
I0
sS'2014-06-12'
p2022
F17.78
sS'2014-06-13'
p2023
I0
sS'2014-06-18'
p2024
I0
sS'2014-06-19'
p2025
I0
sS'2008-07-10'
p2026
I0
sS'2008-07-11'
p2027
I0
sS'2008-07-12'
p2028
I0
sS'2008-07-13'
p2029
I0
sS'2008-07-14'
p2030
I0
sS'2008-07-15'
p2031
I0
sS'2008-07-16'
p2032
I0
sS'2008-07-17'
p2033
I0
sS'2008-07-18'
p2034
I0
sS'2008-07-19'
p2035
I0
sS'2007-04-12'
p2036
I0
sS'2007-04-13'
p2037
I0
sS'2007-04-10'
p2038
I0
sS'2007-04-11'
p2039
I0
sS'2007-04-16'
p2040
I0
sS'2007-04-17'
p2041
I0
sS'2007-04-14'
p2042
I0
sS'2007-04-15'
p2043
I0
sS'2014-05-11'
p2044
I0
sS'2014-05-10'
p2045
I0
sS'2007-04-18'
p2046
I0
sS'2007-04-19'
p2047
I0
sS'2014-05-15'
p2048
I0
sS'2014-05-14'
p2049
I0
sS'2014-05-17'
p2050
I0
sS'2014-05-16'
p2051
I0
sS'2014-04-27'
p2052
I0
sS'2014-05-12'
p2053
I0
sS'2015-10-29'
p2054
I0
sS'2009-03-30'
p2055
I0
sS'2015-10-27'
p2056
I0
sS'2015-10-26'
p2057
I0
sS'2015-10-25'
p2058
I0
sS'2015-10-24'
p2059
I0
sS'2015-10-23'
p2060
I0
sS'2014-04-25'
p2061
I0
sS'2015-10-21'
p2062
F1.016
sS'2011-11-30'
p2063
I0
sS'2006-10-09'
p2064
I0
sS'2006-10-08'
p2065
I0
sS'2014-04-24'
p2066
I0
sS'2006-10-01'
p2067
I0
sS'2014-04-23'
p2068
I0
sS'2006-10-03'
p2069
I0
sS'2006-10-02'
p2070
I0
sS'2006-10-05'
p2071
I0
sS'2006-10-04'
p2072
I0
sS'2006-10-07'
p2073
I0
sS'2006-10-06'
p2074
I0
sS'2014-04-21'
p2075
I0
sS'2014-04-20'
p2076
I0
sS'2015-06-28'
p2077
I0
sS'2015-08-29'
p2078
I0
sS'2008-08-26'
p2079
I0
sS'2012-08-29'
p2080
I0
sS'2012-08-28'
p2081
I0
sS'2008-08-27'
p2082
I0
sS'2012-08-21'
p2083
I0
sS'2012-08-20'
p2084
I0
sS'2012-08-23'
p2085
I0
sS'2012-08-22'
p2086
F1.778
sS'2012-08-25'
p2087
I0
sS'2012-08-24'
p2088
I0
sS'2012-08-27'
p2089
I0
sS'2008-08-21'
p2090
I0
sS'2014-01-15'
p2091
I0
sS'2014-01-14'
p2092
I0
sS'2014-01-17'
p2093
I0
sS'2014-01-16'
p2094
I0
sS'2014-01-11'
p2095
I0
sS'2014-01-10'
p2096
I0
sS'2014-01-13'
p2097
I0
sS'2014-01-12'
p2098
I0
sS'2014-07-21'
p2099
I0
sS'2014-01-19'
p2100
I0
sS'2014-01-18'
p2101
I0
sS'2015-10-28'
p2102
I0
sS'2012-01-01'
p2103
I0
sS'2012-01-02'
p2104
I0
sS'2012-01-03'
p2105
I0
sS'2012-01-04'
p2106
I0
sS'2012-01-05'
p2107
I0
sS'2012-01-06'
p2108
I0
sS'2012-01-07'
p2109
I0
sS'2012-01-08'
p2110
I0
sS'2008-08-28'
p2111
I0
sS'2008-08-29'
p2112
I0
sS'2014-02-28'
p2113
I0
sS'2014-02-25'
p2114
I0
sS'2014-02-24'
p2115
I0
sS'2014-02-27'
p2116
I0
sS'2014-02-26'
p2117
I0
sS'2014-02-21'
p2118
I0
sS'2012-04-04'
p2119
I0
sS'2014-02-23'
p2120
I0
sS'2013-07-24'
p2121
I0
sS'2012-05-07'
p2122
I0
sS'2015-02-18'
p2123
I0
sS'2006-09-30'
p2124
I0
sS'2008-09-01'
p2125
I0
sS'2009-02-18'
p2126
I0
sS'2009-02-19'
p2127
I0
sS'2012-02-29'
p2128
I0
sS'2012-02-28'
p2129
I0
sS'2009-02-12'
p2130
I0
sS'2009-02-13'
p2131
I0
sS'2009-02-10'
p2132
I0
sS'2009-02-11'
p2133
I0
sS'2009-02-16'
p2134
I0
sS'2009-02-17'
p2135
I0
sS'2009-02-14'
p2136
I0
sS'2009-02-15'
p2137
I0
sS'2012-02-16'
p2138
I0
sS'2013-08-30'
p2139
I0
sS'2012-02-14'
p2140
I0
sS'2012-02-15'
p2141
I0
sS'2015-02-13'
p2142
I0
sS'2012-02-12'
p2143
I0
sS'2015-02-12'
p2144
I0
sS'2012-02-13'
p2145
I0
sS'2009-11-23'
p2146
I0
sS'2012-06-29'
p2147
I0
sS'2012-06-28'
p2148
I0
sS'2012-02-10'
p2149
I0
sS'2014-07-01'
p2150
I0
sS'2012-06-23'
p2151
I0
sS'2012-06-22'
p2152
F1.27
sS'2012-06-21'
p2153
I0
sS'2012-02-11'
p2154
I0
sS'2012-06-27'
p2155
I0
sS'2012-06-26'
p2156
I0
sS'2012-06-25'
p2157
I0
sS'2012-06-24'
p2158
I0
sS'2014-10-01'
p2159
I0
sS'2014-10-02'
p2160
I0
sS'2012-05-02'
p2161
I0
sS'2014-10-04'
p2162
I0
sS'2014-10-05'
p2163
I0
sS'2014-10-06'
p2164
I0
sS'2014-10-07'
p2165
I0
sS'2014-10-08'
p2166
I0
sS'2014-07-04'
p2167
I0
sS'2012-09-30'
p2168
I0
sS'2015-08-13'
p2169
I0
sS'2010-11-07'
p2170
I0
sS'2015-08-11'
p2171
I0
sS'2015-08-10'
p2172
I0
sS'2015-08-17'
p2173
I0
sS'2014-07-06'
p2174
I0
sS'2015-08-15'
p2175
I0
sS'2010-11-06'
p2176
I0
sS'2015-08-19'
p2177
I0
sS'2014-07-07'
p2178
I0
sS'2010-11-05'
p2179
I0
sS'2013-09-18'
p2180
I0
sS'2010-11-04'
p2181
I0
sS'2013-09-12'
p2182
I0
sS'2010-11-03'
p2183
I0
sS'2013-09-10'
p2184
I0
sS'2013-09-11'
p2185
I0
sS'2013-09-16'
p2186
I0
sS'2013-09-17'
p2187
I0
sS'2013-09-14'
p2188
F0.254
sS'2010-11-02'
p2189
I0
sS'2010-11-01'
p2190
I0
sS'2014-09-08'
p2191
F5.08
sS'2014-09-09'
p2192
F0.508
sS'2014-09-06'
p2193
I0
sS'2014-09-07'
p2194
I0
sS'2014-09-04'
p2195
I0
sS'2009-06-22'
p2196
F1.016
sS'2014-09-02'
p2197
I0
sS'2014-09-03'
p2198
I0
sS'2014-09-01'
p2199
I0
sS'2013-03-16'
p2200
I0
sS'2015-10-20'
p2201
I0
sS'2015-07-18'
p2202
I0
sS'2015-07-19'
p2203
I0
sS'2015-07-16'
p2204
I0
sS'2015-07-17'
p2205
I0
sS'2015-07-14'
p2206
I0
sS'2010-11-08'
p2207
I0
sS'2015-07-12'
p2208
I0
sS'2013-03-17'
p2209
I0
sS'2015-07-10'
p2210
I0
sS'2015-07-11'
p2211
I0
sS'2013-03-18'
p2212
I0
sS'2009-09-30'
p2213
I0
sS'2008-04-06'
p2214
I0
sS'2008-04-07'
p2215
I0
sS'2008-04-04'
p2216
I0
sS'2008-04-05'
p2217
I0
sS'2008-04-02'
p2218
I0
sS'2008-04-03'
p2219
I0
sS'2015-03-25'
p2220
I0
sS'2008-04-01'
p2221
I0
sS'2015-03-29'
p2222
I0
sS'2015-03-28'
p2223
I0
sS'2008-04-08'
p2224
I0
sS'2008-04-09'
p2225
I0
sS'2015-04-19'
p2226
I0
sS'2013-03-24'
p2227
I0
sS'2010-08-30'
p2228
I0
sS'2015-04-16'
p2229
I0
sS'2015-04-15'
p2230
I0
sS'2015-04-14'
p2231
I0
sS'2015-04-13'
p2232
I0
sS'2013-03-27'
p2233
I0
sS'2015-04-11'
p2234
I0
sS'2015-04-10'
p2235
I0
sS'2013-03-26'
p2236
I0
sS'2011-09-18'
p2237
I0
sS'2011-09-19'
p2238
I0
sS'2011-09-14'
p2239
I0
sS'2011-09-15'
p2240
I0
sS'2011-09-16'
p2241
I0
sS'2011-09-17'
p2242
I0
sS'2011-09-10'
p2243
I0
sS'2011-09-11'
p2244
I0
sS'2011-09-12'
p2245
I0
sS'2011-09-13'
p2246
I0
sS'2009-05-26'
p2247
I0
sS'2009-05-27'
p2248
I0
sS'2008-08-13'
p2249
I0
sS'2008-08-12'
p2250
I0
sS'2008-08-15'
p2251
F2.032
sS'2008-08-14'
p2252
I0
sS'2009-05-20'
p2253
I0
sS'2009-05-21'
p2254
I0
sS'2008-08-19'
p2255
I0
sS'2008-08-18'
p2256
I0
sS'2013-03-22'
p2257
I0
sS'2009-05-28'
p2258
I0
sS'2009-05-29'
p2259
I0
sS'2007-07-13'
p2260
I0
sS'2008-03-15'
p2261
I0
sS'2008-03-16'
p2262
I0
sS'2007-07-10'
p2263
I0
sS'2007-07-17'
p2264
I0
sS'2007-07-16'
p2265
I0
sS'2007-07-15'
p2266
I0
sS'2008-03-13'
p2267
I0
sS'2007-07-19'
p2268
I0
sS'2007-07-18'
p2269
I0
sS'2008-03-18'
p2270
I0
sS'2008-03-19'
p2271
I0
sS'2008-07-07'
p2272
F0.762
sS'2008-07-06'
p2273
I0
sS'2008-07-05'
p2274
I0
sS'2008-07-04'
p2275
I0
sS'2008-07-03'
p2276
F1.778
sS'2008-07-02'
p2277
F0.762
sS'2008-07-01'
p2278
I0
sS'2008-07-09'
p2279
I0
sS'2008-07-08'
p2280
F0.762
sS'2007-04-01'
p2281
I0
sS'2007-04-03'
p2282
I0
sS'2007-04-02'
p2283
I0
sS'2007-04-05'
p2284
I0
sS'2007-04-04'
p2285
I0
sS'2007-04-07'
p2286
I0
sS'2007-04-06'
p2287
I0
sS'2007-04-09'
p2288
I0
sS'2007-04-08'
p2289
I0
sS'2014-05-26'
p2290
I0
sS'2014-05-27'
p2291
I0
sS'2014-05-20'
p2292
I0
sS'2014-05-21'
p2293
I0
sS'2014-05-22'
p2294
I0
sS'2014-05-23'
p2295
I0
sS'2007-08-18'
p2296
I0
sS'2007-08-19'
p2297
I0
sS'2007-08-16'
p2298
F0.508
sS'2007-08-17'
p2299
F0.762
sS'2007-08-14'
p2300
I0
sS'2007-08-15'
p2301
I0
sS'2007-08-12'
p2302
I0
sS'2007-08-13'
p2303
I0
sS'2007-08-10'
p2304
I0
sS'2007-08-11'
p2305
I0
sS'2015-06-29'
p2306
I0
sS'2006-10-30'
p2307
I0
sS'2014-07-19'
p2308
I0
sS'2013-08-12'
p2309
I0
sS'2010-06-08'
p2310
I0
sS'2014-06-09'
p2311
I0
sS'2014-06-08'
p2312
I0
sS'2012-08-18'
p2313
F0.762
sS'2012-08-19'
p2314
I0
sS'2012-08-14'
p2315
I0
sS'2012-08-15'
p2316
I0
sS'2012-08-16'
p2317
F2.286
sS'2012-08-17'
p2318
I0
sS'2012-08-10'
p2319
I0
sS'2012-08-11'
p2320
F8.89
sS'2012-08-12'
p2321
I0
sS'2012-08-13'
p2322
I0
sS'2013-10-10'
p2323
I0
sS'2013-10-11'
p2324
I0
sS'2013-10-15'
p2325
F2.54
sS'2009-01-22'
p2326
I0
sS'2009-01-23'
p2327
I0
sS'2009-01-20'
p2328
I0
sS'2009-01-21'
p2329
I0
sS'2009-01-26'
p2330
I0
sS'2009-01-27'
p2331
I0
sS'2009-01-24'
p2332
I0
sS'2009-01-25'
p2333
I0
sS'2009-01-28'
p2334
I0
sS'2009-01-29'
p2335
I0
sS'2012-01-19'
p2336
I0
sS'2012-01-18'
p2337
I0
sS'2014-02-10'
p2338
I0
sS'2013-10-18'
p2339
I0
sS'2014-02-12'
p2340
I0
sS'2014-02-13'
p2341
I0
sS'2014-02-14'
p2342
I0
sS'2014-02-15'
p2343
I0
sS'2014-02-16'
p2344
I0
sS'2013-10-19'
p2345
I0
sS'2014-02-18'
p2346
I0
sS'2014-02-19'
p2347
I0
sS'2011-01-30'
p2348
I0
sS'2012-07-23'
p2349
I0
sS'2012-07-25'
p2350
I0
sS'2006-02-02'
p2351
I0
sS'2006-02-03'
p2352
I0
sS'2006-02-01'
p2353
I0
sS'2006-02-06'
p2354
I0
sS'2006-02-07'
p2355
I0
sS'2006-02-04'
p2356
I0
sS'2006-02-05'
p2357
I0
sS'2006-02-08'
p2358
I0
sS'2006-02-09'
p2359
I0
sS'2006-09-21'
p2360
I0
sS'2006-09-20'
p2361
I0
sS'2006-09-23'
p2362
I0
sS'2006-09-22'
p2363
I0
sS'2006-09-25'
p2364
I0
sS'2006-09-24'
p2365
I0
sS'2006-09-27'
p2366
I0
sS'2006-09-26'
p2367
I0
sS'2006-09-29'
p2368
I0
sS'2006-09-28'
p2369
I0
sS'2009-02-09'
p2370
I0
sS'2009-02-08'
p2371
I0
sS'2014-11-08'
p2372
I0
sS'2009-02-01'
p2373
I0
sS'2014-01-21'
p2374
I0
sS'2009-02-03'
p2375
I0
sS'2009-02-02'
p2376
I0
sS'2009-02-05'
p2377
I0
sS'2009-02-04'
p2378
I0
sS'2009-02-07'
p2379
I0
sS'2009-02-06'
p2380
I0
sS'2006-06-08'
p2381
I0
sS'2006-06-09'
p2382
I0
sS'2006-06-06'
p2383
I0
sS'2006-06-07'
p2384
I0
sS'2006-06-04'
p2385
I0
sS'2006-06-05'
p2386
I0
sS'2006-06-02'
p2387
I0
sS'2006-06-03'
p2388
I0
sS'2006-06-01'
p2389
I0
sS'2010-06-30'
p2390
F0.762
sS'2009-04-03'
p2391
I0
sS'2009-04-02'
p2392
I0
sS'2009-04-01'
p2393
I0
sS'2014-11-06'
p2394
I0
sS'2014-10-17'
p2395
I0
sS'2014-10-16'
p2396
I0
sS'2013-02-28'
p2397
I0
sS'2014-10-14'
p2398
I0
sS'2014-10-13'
p2399
I0
sS'2014-10-12'
p2400
I0
sS'2014-10-11'
p2401
I0
sS'2014-10-10'
p2402
I0
sS'2013-02-22'
p2403
I0
sS'2009-04-07'
p2404
I0
sS'2013-02-20'
p2405
I0
sS'2013-02-21'
p2406
I0
sS'2013-02-26'
p2407
I0
sS'2013-02-27'
p2408
I0
sS'2013-02-24'
p2409
I0
sS'2009-04-06'
p2410
I0
sS'2007-10-22'
p2411
I0
sS'2007-10-23'
p2412
I0
sS'2007-10-20'
p2413
I0
sS'2007-10-21'
p2414
I0
sS'2007-10-26'
p2415
I0
sS'2006-08-28'
p2416
I0
sS'2007-10-24'
p2417
I0
sS'2007-10-25'
p2418
I0
sS'2007-10-28'
p2419
I0
sS'2007-10-29'
p2420
F1.778
sS'2007-06-18'
p2421
I0
sS'2013-09-09'
p2422
I0
sS'2013-09-08'
p2423
I0
sS'2013-09-01'
p2424
I0
sS'2013-09-03'
p2425
I0
sS'2013-09-02'
p2426
I0
sS'2013-09-05'
p2427
I0
sS'2009-04-09'
p2428
I0
sS'2013-09-07'
p2429
I0
sS'2013-09-06'
p2430
F3.81
sS'2009-04-08'
p2431
I0
sS'2014-09-19'
p2432
I0
sS'2014-09-18'
p2433
I0
sS'2014-09-15'
p2434
I0
sS'2014-09-14'
p2435
I0
sS'2014-09-17'
p2436
I0
sS'2014-09-16'
p2437
F0.508
sS'2007-06-19'
p2438
I0
sS'2013-02-11'
p2439
I0
sS'2014-09-13'
p2440
I0
sS'2014-09-12'
p2441
F0.508
sS'2010-02-28'
p2442
I0
sS'2013-02-10'
p2443
I0
sS'2006-08-20'
p2444
I0
sS'2010-02-21'
p2445
I0
sS'2010-02-20'
p2446
I0
sS'2010-02-23'
p2447
I0
sS'2006-08-21'
p2448
I0
sS'2010-02-25'
p2449
I0
sS'2010-02-24'
p2450
I0
sS'2010-02-27'
p2451
I0
sS'2010-02-26'
p2452
I0
sS'2014-06-03'
p2453
F0.508
sS'2015-07-09'
p2454
I0
sS'2015-07-08'
p2455
I0
sS'2015-07-05'
p2456
I0
sS'2015-07-04'
p2457
I0
sS'2015-07-07'
p2458
I0
sS'2015-07-06'
p2459
I0
sS'2015-07-01'
p2460
I0
sS'2013-02-19'
p2461
I0
sS'2015-07-03'
p2462
I0
sS'2015-07-02'
p2463
I0
sS'2014-06-02'
p2464
F1.524
sS'2015-06-14'
p2465
I0
sS'2014-06-01'
p2466
I0
sS'2009-09-08'
p2467
I0
sS'2009-09-09'
p2468
I0
sS'2007-03-28'
p2469
I0
sS'2007-03-29'
p2470
I0
sS'2007-03-26'
p2471
I0
sS'2007-03-27'
p2472
I0
sS'2007-03-24'
p2473
I0
sS'2007-03-25'
p2474
I0
sS'2007-03-22'
p2475
I0
sS'2007-03-23'
p2476
I0
sS'2007-03-20'
p2477
I0
sS'2007-03-21'
p2478
I0
sS'2008-04-15'
p2479
I0
sS'2008-04-14'
p2480
I0
sS'2008-04-17'
p2481
I0
sS'2008-04-16'
p2482
I0
sS'2008-04-11'
p2483
I0
sS'2008-04-10'
p2484
I0
sS'2008-04-13'
p2485
I0
sS'2008-04-12'
p2486
I0
sS'2008-04-19'
p2487
I0
sS'2008-04-18'
p2488
I0
sS'2010-10-28'
p2489
I0
sS'2010-10-29'
p2490
I0
sS'2010-08-29'
p2491
I0
sS'2010-08-28'
p2492
I0
sS'2010-08-27'
p2493
I0
sS'2010-08-26'
p2494
F1.778
sS'2010-08-25'
p2495
I0
sS'2010-08-24'
p2496
I0
sS'2010-08-23'
p2497
I0
sS'2010-08-22'
p2498
I0
sS'2010-08-21'
p2499
I0
sS'2010-08-20'
p2500
I0
sS'2011-09-03'
p2501
I0
sS'2011-09-02'
p2502
I0
sS'2011-09-01'
p2503
I0
sS'2011-09-07'
p2504
I0
sS'2011-09-06'
p2505
I0
sS'2011-09-05'
p2506
I0
sS'2011-09-04'
p2507
I0
sS'2011-09-09'
p2508
I0
sS'2011-09-08'
p2509
I0
sS'2008-08-24'
p2510
I0
sS'2008-08-25'
p2511
I0
sS'2008-03-09'
p2512
I0
sS'2008-03-08'
p2513
I0
sS'2008-08-20'
p2514
I0
sS'2009-05-30'
p2515
I0
sS'2008-08-22'
p2516
I0
sS'2008-08-23'
p2517
I0
sS'2008-03-03'
p2518
I0
sS'2008-03-02'
p2519
I0
sS'2008-03-01'
p2520
I0
sS'2015-06-19'
p2521
I0
sS'2008-03-07'
p2522
I0
sS'2008-03-06'
p2523
I0
sS'2008-03-05'
p2524
I0
sS'2008-03-04'
p2525
I0
sS'2013-10-03'
p2526
I0
sS'2015-06-18'
p2527
I0
sS'2015-03-30'
p2528
I0
sS'2013-03-21'
p2529
I0
sS'2014-05-30'
p2530
I0
sS'2007-04-30'
p2531
I0
sS'2007-08-09'
p2532
I0
sS'2007-08-08'
p2533
I0
sS'2007-08-05'
p2534
I0
sS'2007-08-04'
p2535
I0
sS'2007-08-07'
p2536
F0.508
sS'2007-08-06'
p2537
I0
sS'2007-08-01'
p2538
I0
sS'2007-08-03'
p2539
I0
sS'2007-08-02'
p2540
I0
sS'2006-10-23'
p2541
I0
sS'2006-10-22'
p2542
I0
sS'2006-10-21'
p2543
I0
sS'2006-10-20'
p2544
I0
sS'2006-10-27'
p2545
I0
sS'2006-10-26'
p2546
I0
sS'2006-10-25'
p2547
I0
sS'2006-10-24'
p2548
I0
sS'2006-10-29'
p2549
I0
sS'2006-10-28'
p2550
I0
sS'2014-08-18'
p2551
I0
sS'2008-11-28'
p2552
I0
sS'2008-11-29'
p2553
I0
sS'2008-11-26'
p2554
I0
sS'2008-11-27'
p2555
I0
sS'2008-11-24'
p2556
I0
sS'2008-11-25'
p2557
I0
sS'2008-11-22'
p2558
I0
sS'2008-11-23'
p2559
I0
sS'2008-11-20'
p2560
I0
sS'2008-11-21'
p2561
I0
sS'2013-09-15'
p2562
I0
sS'2012-08-03'
p2563
I0
sS'2012-08-02'
p2564
I0
sS'2012-08-01'
p2565
I0
sS'2013-06-13'
p2566
I0
sS'2012-08-07'
p2567
I0
sS'2012-08-06'
p2568
I0
sS'2012-08-05'
p2569
I0
sS'2012-08-04'
p2570
I0
sS'2012-08-09'
p2571
I0
sS'2012-08-08'
p2572
I0
sS'2014-08-10'
p2573
I0
sS'2013-08-01'
p2574
I0
sS'2009-01-30'
p2575
I0
sS'2011-05-11'
p2576
I0
sS'2014-02-07'
p2577
I0
sS'2014-02-06'
p2578
I0
sS'2014-02-05'
p2579
I0
sS'2014-02-04'
p2580
I0
sS'2014-02-03'
p2581
I0
sS'2014-02-02'
p2582
I0
sS'2014-02-01'
p2583
I0
sS'2014-02-09'
p2584
I0
sS'2014-02-08'
p2585
I0
sS'2011-01-21'
p2586
I0
sS'2011-01-20'
p2587
I0
sS'2011-01-23'
p2588
I0
sS'2011-01-22'
p2589
I0
sS'2011-01-25'
p2590
I0
sS'2011-01-24'
p2591
I0
sS'2011-01-27'
p2592
I0
sS'2011-01-26'
p2593
I0
sS'2011-01-29'
p2594
I0
sS'2011-01-28'
p2595
I0
sS'2006-02-11'
p2596
I0
sS'2006-02-10'
p2597
I0
sS'2006-02-13'
p2598
I0
sS'2006-02-12'
p2599
I0
sS'2006-02-15'
p2600
I0
sS'2006-02-14'
p2601
I0
sS'2006-02-17'
p2602
I0
sS'2006-02-16'
p2603
I0
sS'2006-02-19'
p2604
I0
sS'2006-02-18'
p2605
I0
sS'2006-09-14'
p2606
I0
sS'2006-09-15'
p2607
I0
sS'2006-09-16'
p2608
I0
sS'2006-09-17'
p2609
I0
sS'2006-09-10'
p2610
I0
sS'2006-09-11'
p2611
I0
sS'2006-09-12'
p2612
I0
sS'2006-09-13'
p2613
I0
sS'2011-02-02'
p2614
I0
sS'2011-02-03'
p2615
I0
sS'2011-02-01'
p2616
I0
sS'2006-09-18'
p2617
I0
sS'2006-09-19'
p2618
I0
sS'2011-02-04'
p2619
I0
sS'2011-02-05'
p2620
I0
sS'2014-01-30'
p2621
I0
sS'2006-06-19'
p2622
I0
sS'2006-06-18'
p2623
I0
sS'2015-10-16'
p2624
I0
sS'2006-06-15'
p2625
I0
sS'2006-06-14'
p2626
I0
sS'2006-06-17'
p2627
I0
sS'2006-06-16'
p2628
I0
sS'2006-06-11'
p2629
I0
sS'2006-06-10'
p2630
I0
sS'2006-06-13'
p2631
I0
sS'2006-06-12'
p2632
I0
sS'2010-06-25'
p2633
I0
sS'2010-06-24'
p2634
I0
sS'2010-06-27'
p2635
I0
sS'2010-06-26'
p2636
I0
sS'2010-06-21'
p2637
I0
sS'2010-06-20'
p2638
I0
sS'2010-06-23'
p2639
I0
sS'2010-06-22'
p2640
I0
sS'2010-06-29'
p2641
I0
sS'2010-06-28'
p2642
F0.508
sS'2014-07-05'
p2643
F0.762
sS'2014-11-27'
p2644
I0
sS'2015-01-03'
p2645
I0
sS'2015-01-02'
p2646
I0
sS'2014-11-29'
p2647
I0
sS'2012-05-21'
p2648
I0
sS'2015-01-09'
p2649
I0
sS'2011-06-06'
p2650
I0
sS'2007-10-30'
p2651
I0
sS'2011-06-04'
p2652
I0
sS'2011-06-05'
p2653
I0
sS'2011-06-02'
p2654
I0
sS'2011-06-03'
p2655
I0
sS'2011-06-01'
p2656
I0
sS'2013-06-02'
p2657
I0
sS'2011-06-08'
p2658
I0
sS'2011-06-09'
p2659
I0
sS'2013-06-03'
p2660
I0
sS'2015-08-24'
p2661
I0
sS'2007-07-08'
p2662
I0
sS'2015-01-08'
p2663
I0
sS'2015-08-25'
p2664
I0
sS'2013-09-30'
p2665
I0
sS'2007-07-09'
p2666
I0
sS'2014-09-20'
p2667
I0
sS'2014-09-21'
p2668
I0
sS'2014-09-22'
p2669
I0
sS'2014-09-23'
p2670
I0
sS'2014-09-24'
p2671
I0
sS'2013-06-06'
p2672
I0
sS'2014-09-26'
p2673
I0
sS'2014-09-27'
p2674
I0
sS'2014-09-28'
p2675
F0.508
sS'2014-09-29'
p2676
I0
sS'2013-06-07'
p2677
F2.286
sS'2007-07-04'
p2678
I0
sS'2010-02-18'
p2679
I0
sS'2010-02-19'
p2680
I0
sS'2007-07-05'
p2681
I0
sS'2010-02-14'
p2682
I0
sS'2010-02-15'
p2683
I0
sS'2010-02-16'
p2684
I0
sS'2010-02-17'
p2685
I0
sS'2010-02-10'
p2686
I0
sS'2010-02-11'
p2687
I0
sS'2010-02-12'
p2688
I0
sS'2010-02-13'
p2689
I0
sS'2015-07-30'
p2690
I0
sS'2008-06-08'
p2691
I0
sS'2015-06-01'
p2692
I0
sS'2009-10-08'
p2693
I0
sS'2009-10-09'
p2694
I0
sS'2009-10-06'
p2695
I0
sS'2009-10-07'
p2696
I0
sS'2009-10-04'
p2697
I0
sS'2009-10-05'
p2698
I0
sS'2009-10-02'
p2699
I0
sS'2009-10-03'
p2700
I0
sS'2009-10-01'
p2701
I0
sS'2014-07-28'
p2702
I0
sS'2014-07-29'
p2703
I0
sS'2008-04-28'
p2704
I0
sS'2008-04-29'
p2705
I0
sS'2009-09-11'
p2706
I0
sS'2009-09-10'
p2707
I0
sS'2009-09-17'
p2708
I0
sS'2009-09-16'
p2709
I0
sS'2009-09-15'
p2710
I0
sS'2009-09-14'
p2711
I0
sS'2008-04-20'
p2712
I0
sS'2008-04-21'
p2713
I0
sS'2009-09-19'
p2714
I0
sS'2008-04-23'
p2715
I0
sS'2008-04-24'
p2716
I0
sS'2008-04-25'
p2717
I0
sS'2008-04-26'
p2718
I0
sS'2008-04-27'
p2719
I0
sS'2009-11-02'
p2720
I0
sS'2008-09-12'
p2721
I0
sS'2009-11-04'
p2722
I0
sS'2010-11-25'
p2723
I0
sS'2008-09-10'
p2724
I0
sS'2010-11-24'
p2725
I0
sS'2010-10-30'
p2726
I0
sS'2009-11-06'
p2727
I0
sS'2010-11-27'
p2728
I0
sS'2009-05-08'
p2729
I0
sS'2009-05-09'
p2730
I0
sS'2012-11-14'
p2731
I0
sS'2010-11-26'
p2732
I0
sS'2012-11-12'
p2733
I0
sS'2012-11-13'
p2734
I0
sS'2012-11-10'
p2735
I0
sS'2012-11-11'
p2736
I0
sS'2009-05-01'
p2737
I0
sS'2009-05-02'
p2738
I0
sS'2008-08-30'
p2739
I0
sS'2009-05-04'
p2740
I0
sS'2009-05-05'
p2741
I0
sS'2009-05-06'
p2742
I0
sS'2009-05-07'
p2743
I0
sS'2010-11-23'
p2744
I0
sS'2010-11-22'
p2745
I0
sS'2011-06-28'
p2746
I0
sS'2009-06-18'
p2747
F0.508
sS'2009-06-19'
p2748
F2.032
sS'2009-06-16'
p2749
I0
sS'2009-06-17'
p2750
I0
sS'2009-06-14'
p2751
I0
sS'2009-06-15'
p2752
I0
sS'2009-06-12'
p2753
I0
sS'2009-06-13'
p2754
I0
sS'2009-06-10'
p2755
I0
sS'2009-06-11'
p2756
I0
sS'2007-10-18'
p2757
I0
sS'2013-07-04'
p2758
I0
sS'2013-06-04'
p2759
F0.254
sS'2015-05-30'
p2760
I0
sS'2011-02-08'
p2761
I0
sS'2009-10-28'
p2762
I0
sS'2007-04-29'
p2763
I0
sS'2007-04-28'
p2764
I0
sS'2009-10-29'
p2765
I0
sS'2007-04-23'
p2766
I0
sS'2007-04-22'
p2767
I0
sS'2007-04-21'
p2768
I0
sS'2007-04-20'
p2769
I0
sS'2007-04-27'
p2770
I0
sS'2007-04-26'
p2771
I0
sS'2007-04-25'
p2772
I0
sS'2007-04-24'
p2773
I0
sS'2011-06-23'
p2774
I0
sS'2011-06-24'
p2775
I0
sS'2011-06-25'
p2776
I0
sS'2007-08-30'
p2777
F2.54
sS'2013-04-30'
p2778
I0
sS'2011-06-26'
p2779
I0
sS'2011-06-27'
p2780
I0
sS'2011-02-06'
p2781
I0
sS'2011-10-10'
p2782
I0
sS'2011-02-07'
p2783
I0
sS'2011-10-11'
p2784
I0
sS'2008-11-30'
p2785
I0
sS'2015-06-09'
p2786
I0
sS'2010-03-22'
p2787
I0
sS'2011-10-18'
p2788
I0
sS'2010-03-23'
p2789
I0
sS'2014-05-19'
p2790
I0
sS'2011-10-19'
p2791
I0
sS'2014-05-18'
p2792
I0
sS'2009-01-04'
p2793
I0
sS'2009-01-05'
p2794
I0
sS'2009-01-06'
p2795
I0
sS'2009-01-07'
p2796
I0
sS'2009-01-01'
p2797
I0
sS'2009-01-02'
p2798
I0
sS'2009-01-03'
p2799
I0
sS'2009-01-08'
p2800
I0
sS'2009-01-09'
p2801
I0
sS'2010-03-28'
p2802
I0
sS'2010-03-29'
p2803
I0
sS'2014-05-13'
p2804
I0
sS'2013-06-05'
p2805
I0
sS'2011-01-14'
p2806
I0
sS'2011-01-15'
p2807
I0
sS'2006-02-26'
p2808
I0
sS'2011-01-17'
p2809
I0
sS'2011-01-10'
p2810
I0
sS'2011-01-11'
p2811
I0
sS'2011-01-12'
p2812
I0
sS'2011-01-13'
p2813
I0
sS'2011-01-18'
p2814
I0
sS'2011-01-19'
p2815
I0
sS'2006-02-24'
p2816
I0
sS'2006-02-25'
p2817
I0
sS'2006-09-09'
p2818
I0
sS'2006-09-08'
p2819
I0
sS'2006-02-20'
p2820
I0
sS'2006-02-21'
p2821
I0
sS'2006-02-22'
p2822
I0
sS'2006-02-23'
p2823
I0
sS'2006-09-03'
p2824
F4.318
sS'2006-09-02'
p2825
I0
sS'2006-09-01'
p2826
I0
sS'2006-09-07'
p2827
I0
sS'2006-09-06'
p2828
I0
sS'2006-09-05'
p2829
I0
sS'2006-09-04'
p2830
I0
sS'2011-02-19'
p2831
I0
sS'2011-02-18'
p2832
I0
sS'2011-02-11'
p2833
I0
sS'2011-02-10'
p2834
I0
sS'2011-02-13'
p2835
I0
sS'2011-02-12'
p2836
I0
sS'2011-02-15'
p2837
I0
sS'2011-02-14'
p2838
I0
sS'2011-02-17'
p2839
I0
sS'2011-02-16'
p2840
I0
sS'2009-02-23'
p2841
I0
sS'2009-02-22'
p2842
I0
sS'2009-02-21'
p2843
I0
sS'2009-02-20'
p2844
I0
sS'2009-02-27'
p2845
I0
sS'2009-02-26'
p2846
I0
sS'2009-02-25'
p2847
I0
sS'2009-02-24'
p2848
I0
sS'2009-02-28'
p2849
I0
sS'2006-06-20'
p2850
I0
sS'2006-06-21'
p2851
I0
sS'2006-06-22'
p2852
I0
sS'2006-06-23'
p2853
I0
sS'2006-06-24'
p2854
I0
sS'2006-06-25'
p2855
I0
sS'2006-06-26'
p2856
I0
sS'2006-06-27'
p2857
I0
sS'2006-06-28'
p2858
I0
sS'2006-06-29'
p2859
I0
sS'2010-06-12'
p2860
F1.778
sS'2010-06-13'
p2861
F2.032
sS'2010-06-14'
p2862
F0.762
sS'2010-06-15'
p2863
I0
sS'2010-06-16'
p2864
F0.762
sS'2010-06-17'
p2865
F1.016
sS'2013-06-08'
p2866
F2.286
sS'2013-03-19'
p2867
I0
sS'2015-10-22'
p2868
I0
sS'2013-02-08'
p2869
I0
sS'2013-02-09'
p2870
I0
sS'2013-06-09'
p2871
I0
sS'2013-02-04'
p2872
I0
sS'2013-02-05'
p2873
I0
sS'2013-02-06'
p2874
I0
sS'2013-02-07'
p2875
I0
sS'2013-02-01'
p2876
I0
sS'2013-02-02'
p2877
I0
sS'2013-02-03'
p2878
I0
sS'2007-10-04'
p2879
I0
sS'2007-10-05'
p2880
I0
sS'2007-10-06'
p2881
I0
sS'2007-10-07'
p2882
I0
sS'2011-06-11'
p2883
I0
sS'2007-10-01'
p2884
I0
sS'2007-10-02'
p2885
I0
sS'2007-10-03'
p2886
I0
sS'2007-10-08'
p2887
I0
sS'2007-10-09'
p2888
I0
sS'2013-09-23'
p2889
I0
sS'2013-09-22'
p2890
I0
sS'2013-09-21'
p2891
I0
sS'2013-09-20'
p2892
I0
sS'2013-09-27'
p2893
I0
sS'2013-09-26'
p2894
I0
sS'2013-09-25'
p2895
F1.524
sS'2013-09-24'
p2896
F1.778
sS'2013-09-29'
p2897
I0
sS'2013-09-28'
p2898
I0
sS'2012-07-06'
p2899
I0
sS'2012-07-07'
p2900
I0
sS'2012-07-04'
p2901
I0
sS'2010-02-03'
p2902
I0
sS'2010-02-02'
p2903
I0
sS'2010-02-01'
p2904
I0
sS'2012-07-05'
p2905
I0
sS'2010-02-07'
p2906
I0
sS'2010-02-06'
p2907
I0
sS'2010-02-05'
p2908
I0
sS'2010-02-04'
p2909
I0
sS'2011-05-25'
p2910
I0
sS'2011-05-24'
p2911
I0
sS'2010-02-09'
p2912
I0
sS'2010-02-08'
p2913
I0
sS'2011-05-21'
p2914
I0
sS'2011-05-20'
p2915
I0
sS'2011-05-23'
p2916
I0
sS'2011-05-22'
p2917
I0
sS'2014-11-30'
p2918
I0
sS'2012-07-01'
p2919
I0
sS'2015-07-27'
p2920
I0
sS'2015-07-26'
p2921
I0
sS'2015-07-25'
p2922
I0
sS'2015-07-24'
p2923
I0
sS'2015-07-23'
p2924
I0
sS'2015-07-22'
p2925
I0
sS'2015-07-21'
p2926
F0.508
sS'2015-07-20'
p2927
I0
sS'2015-07-29'
p2928
I0
sS'2015-07-28'
p2929
I0
sS'2012-05-18'
p2930
I0
sS'2012-04-30'
p2931
I0
sS'2009-10-19'
p2932
I0
sS'2009-10-18'
p2933
I0
sS'2009-10-15'
p2934
I0
sS'2009-10-14'
p2935
I0
sS'2009-10-17'
p2936
I0
sS'2009-10-16'
p2937
I0
sS'2009-10-11'
p2938
I0
sS'2009-10-10'
p2939
I0
sS'2009-10-13'
p2940
I0
sS'2009-10-12'
p2941
I0
sS'2006-05-25'
p2942
I0
sS'2011-08-23'
p2943
I0
sS'2009-07-25'
p2944
I0
sS'2015-11-27'
p2945
I0
sS'2006-05-27'
p2946
I0
sS'2007-06-25'
p2947
F1.016
sS'2007-03-02'
p2948
I0
sS'2007-03-03'
p2949
I0
sS'2007-03-04'
p2950
I0
sS'2007-03-05'
p2951
I0
sS'2007-03-06'
p2952
I0
sS'2007-06-24'
p2953
F12.446
sS'2007-03-08'
p2954
I0
sS'2006-05-21'
p2955
I0
sS'2007-06-27'
p2956
I0
sS'2006-05-20'
p2957
I0
sS'2009-04-22'
p2958
I0
sS'2009-07-22'
p2959
I0
sS'2009-04-25'
p2960
I0
sS'2006-05-22'
p2961
I0
sS'2007-06-20'
p2962
I0
sS'2010-10-08'
p2963
I0
sS'2009-04-27'
p2964
I0
sS'2010-10-04'
p2965
I0
sS'2010-10-05'
p2966
I0
sS'2010-10-06'
p2967
I0
sS'2009-04-26'
p2968
I0
sS'2010-10-01'
p2969
I0
sS'2010-10-02'
p2970
I0
sS'2010-10-03'
p2971
I0
sS'2012-11-05'
p2972
I0
sS'2012-11-04'
p2973
I0
sS'2012-11-07'
p2974
I0
sS'2012-11-06'
p2975
I0
sS'2012-11-01'
p2976
I0
sS'2009-05-19'
p2977
I0
sS'2009-05-18'
p2978
I0
sS'2009-05-17'
p2979
I0
sS'2009-05-16'
p2980
I0
sS'2009-05-15'
p2981
I0
sS'2009-05-14'
p2982
I0
sS'2009-05-13'
p2983
I0
sS'2009-05-12'
p2984
F1.778
sS'2009-05-11'
p2985
I0
sS'2006-05-28'
p2986
I0
sS'2015-03-20'
p2987
I0
sS'2008-06-28'
p2988
I0
sS'2008-06-29'
p2989
I0
sS'2009-06-09'
p2990
I0
sS'2009-06-08'
p2991
I0
sS'2012-07-13'
p2992
I0
sS'2009-06-05'
p2993
I0
sS'2008-06-23'
p2994
I0
sS'2009-06-07'
p2995
I0
sS'2009-06-06'
p2996
I0
sS'2009-06-01'
p2997
I0
sS'2008-06-27'
p2998
I0
sS'2009-06-03'
p2999
I0
sS'2009-06-02'
p3000
I0
sS'2015-03-27'
p3001
I0
sS'2013-05-16'
p3002
I0
sS'2013-05-17'
p3003
I0
sS'2013-05-14'
p3004
I0
sS'2013-05-15'
p3005
I0
sS'2013-05-12'
p3006
I0
sS'2012-07-12'
p3007
I0
sS'2013-05-10'
p3008
I0
sS'2011-06-07'
p3009
I0
sS'2015-05-21'
p3010
I0
sS'2015-05-20'
p3011
I0
sS'2015-05-23'
p3012
I0
sS'2015-05-22'
p3013
I0
sS'2015-05-25'
p3014
I0
sS'2015-05-24'
p3015
I0
sS'2013-05-18'
p3016
I0
sS'2013-05-19'
p3017
I0
sS'2015-01-30'
p3018
I0
sS'2007-08-27'
p3019
I0
sS'2007-08-26'
p3020
I0
sS'2007-08-25'
p3021
I0
sS'2007-08-24'
p3022
I0
sS'2007-08-23'
p3023
I0
sS'2007-08-22'
p3024
I0
sS'2007-08-21'
p3025
I0
sS'2007-08-20'
p3026
I0
sS'2015-01-17'
p3027
I0
sS'2007-05-30'
p3028
I0
sS'2007-08-29'
p3029
I0
sS'2007-08-28'
p3030
I0
sS'2014-08-27'
p3031
I0
sS'2008-11-01'
p3032
I0
sS'2008-11-02'
p3033
I0
sS'2008-11-03'
p3034
I0
sS'2008-11-04'
p3035
I0
sS'2008-11-05'
p3036
I0
sS'2008-11-06'
p3037
I0
sS'2008-11-07'
p3038
I0
sS'2008-11-08'
p3039
I0
sS'2008-11-09'
p3040
I0
sS'2015-11-01'
p3041
I0
sS'2015-11-06'
p3042
I0
sS'2015-11-07'
p3043
I0
sS'2015-11-04'
p3044
I0
sS'2015-11-05'
p3045
I0
sS'2012-08-26'
p3046
I0
sS'2015-03-11'
p3047
I0
sS'2015-09-13'
p3048
I0
sS'2015-03-17'
p3049
I0
sS'2009-01-19'
p3050
I0
sS'2009-01-18'
p3051
I0
sS'2009-01-13'
p3052
I0
sS'2009-01-12'
p3053
I0
sS'2009-01-11'
p3054
I0
sS'2009-01-10'
p3055
I0
sS'2009-01-17'
p3056
I0
sS'2009-01-16'
p3057
I0
sS'2009-01-15'
p3058
I0
sS'2009-01-14'
p3059
I0
sS'2015-10-11'
p3060
I0
sS'2007-09-28'
p3061
I0
sS'2013-01-12'
p3062
I0
sS'2013-01-13'
p3063
I0
sS'2013-01-10'
p3064
I0
sS'2013-01-11'
p3065
I0
sS'2013-01-16'
p3066
I0
sS'2013-01-17'
p3067
I0
sS'2013-01-14'
p3068
I0
sS'2013-01-15'
p3069
I0
sS'2013-01-18'
p3070
I0
sS'2013-01-19'
p3071
I0
sS'2015-02-20'
p3072
I0
sS'2014-03-28'
p3073
I0
sS'2014-03-29'
p3074
I0
sS'2014-03-22'
p3075
I0
sS'2014-03-23'
p3076
I0
sS'2014-03-20'
p3077
I0
sS'2014-03-21'
p3078
I0
sS'2014-03-26'
p3079
I0
sS'2014-03-27'
p3080
I0
sS'2014-03-24'
p3081
I0
sS'2014-03-25'
p3082
I0
sS'2014-09-25'
p3083
I0
sS'2011-02-28'
p3084
I0
sS'2011-02-24'
p3085
I0
sS'2011-02-25'
p3086
I0
sS'2011-02-26'
p3087
I0
sS'2011-02-27'
p3088
I0
sS'2011-02-20'
p3089
I0
sS'2011-02-21'
p3090
I0
sS'2011-02-22'
p3091
I0
sS'2011-02-23'
p3092
I0
sS'2013-04-28'
p3093
I0
sS'2012-01-09'
p3094
I0
sS'2015-10-05'
p3095
I0
sS'2010-06-09'
p3096
I0
sS'2006-06-30'
p3097
I0
sS'2010-06-07'
p3098
I0
sS'2010-06-06'
p3099
I0
sS'2010-06-05'
p3100
I0
sS'2010-06-04'
p3101
I0
sS'2010-06-03'
p3102
I0
sS'2010-06-02'
p3103
I0
sS'2010-06-01'
p3104
I0
sS'2012-03-08'
p3105
I0
sS'2012-03-09'
p3106
I0
sS'2012-03-02'
p3107
I0
sS'2012-03-03'
p3108
I0
sS'2012-03-01'
p3109
I0
sS'2012-03-06'
p3110
I0
sS'2012-03-07'
p3111
I0
sS'2012-03-04'
p3112
I0
sS'2012-03-05'
p3113
I0
sS'2015-10-03'
p3114
I0
sS'2015-10-02'
p3115
I0
sS'2013-02-13'
p3116
I0
sS'2013-02-12'
p3117
I0
sS'2011-01-09'
p3118
I0
sS'2011-01-08'
p3119
I0
sS'2013-02-17'
p3120
I0
sS'2013-02-16'
p3121
I0
sS'2013-02-15'
p3122
I0
sS'2013-02-14'
p3123
I0
sS'2011-01-03'
p3124
I0
sS'2011-01-02'
p3125
I0
sS'2011-01-01'
p3126
I0
sS'2013-02-18'
p3127
I0
sS'2011-01-07'
p3128
I0
sS'2011-01-06'
p3129
I0
sS'2011-01-05'
p3130
I0
sS'2011-01-04'
p3131
I0
sS'2015-05-10'
p3132
I0
sS'2015-05-11'
p3133
I0
sS'2015-02-21'
p3134
I0
sS'2012-11-24'
p3135
I0
sS'2014-08-19'
p3136
I0
sS'2014-08-12'
p3137
I0
sS'2014-08-13'
p3138
I0
sS'2011-06-15'
p3139
F1.27
sS'2014-08-11'
p3140
I0
sS'2014-08-16'
p3141
I0
sS'2014-08-17'
p3142
I0
sS'2014-08-14'
p3143
I0
sS'2014-08-15'
p3144
I0
sS'2011-05-10'
p3145
I0
sS'2010-01-19'
p3146
I0
sS'2011-05-12'
p3147
I0
sS'2011-05-13'
p3148
I0
sS'2011-05-14'
p3149
I0
sS'2011-05-15'
p3150
I0
sS'2011-05-16'
p3151
I0
sS'2011-05-17'
p3152
I0
sS'2011-05-18'
p3153
I0
sS'2011-05-19'
p3154
I0
sS'2015-09-08'
p3155
I0
sS'2014-11-21'
p3156
I0
sS'2014-11-20'
p3157
I0
sS'2014-11-23'
p3158
I0
sS'2014-11-22'
p3159
I0
sS'2014-11-25'
p3160
I0
sS'2014-11-24'
p3161
I0
sS'2010-10-22'
p3162
I0
sS'2014-11-26'
p3163
I0
sS'2011-06-14'
p3164
F1.27
sS'2014-11-28'
p3165
I0
sS'2015-06-03'
p3166
I0
sS'2012-10-27'
p3167
I0
sS'2012-04-29'
p3168
I0
sS'2012-04-28'
p3169
I0
sS'2011-06-17'
p3170
I0
sS'2012-04-25'
p3171
I0
sS'2012-04-24'
p3172
I0
sS'2012-04-27'
p3173
I0
sS'2012-04-26'
p3174
I0
sS'2012-04-21'
p3175
I0
sS'2012-04-20'
p3176
I0
sS'2012-04-23'
p3177
I0
sS'2012-04-22'
p3178
I0
sS'2009-10-20'
p3179
I0
sS'2009-10-21'
p3180
I0
sS'2009-10-22'
p3181
I0
sS'2009-10-23'
p3182
I0
sS'2009-10-24'
p3183
I0
sS'2009-10-25'
p3184
I0
sS'2009-10-26'
p3185
I0
sS'2009-10-27'
p3186
I0
sS'2007-10-13'
p3187
I0
sS'2007-10-12'
p3188
I0
sS'2007-10-11'
p3189
I0
sS'2007-10-10'
p3190
I0
sS'2007-10-17'
p3191
I0
sS'2007-10-16'
p3192
I0
sS'2007-10-15'
p3193
I0
sS'2007-10-14'
p3194
I0
sS'2011-10-12'
p3195
I0
sS'2011-10-13'
p3196
F0.762
sS'2006-07-18'
p3197
I0
sS'2006-07-19'
p3198
I0
sS'2011-10-16'
p3199
I0
sS'2011-10-17'
p3200
I0
sS'2011-10-14'
p3201
I0
sS'2011-10-15'
p3202
I0
sS'2006-07-12'
p3203
I0
sS'2006-07-13'
p3204
F1.016
sS'2006-07-10'
p3205
I0
sS'2006-07-11'
p3206
I0
sS'2006-07-16'
p3207
I0
sS'2006-07-17'
p3208
I0
sS'2006-07-14'
p3209
I0
sS'2006-07-15'
p3210
I0
sS'2007-03-17'
p3211
I0
sS'2007-03-16'
p3212
I0
sS'2007-03-15'
p3213
I0
sS'2007-03-14'
p3214
I0
sS'2007-03-13'
p3215
I0
sS'2007-03-12'
p3216
I0
sS'2007-03-11'
p3217
I0
sS'2007-03-10'
p3218
I0
sS'2007-03-19'
p3219
I0
sS'2007-03-18'
p3220
I0
sS'2015-01-23'
p3221
I0
sS'2015-02-22'
p3222
I0
sS'2015-01-22'
p3223
I0
sS'2013-10-30'
p3224
I0
sS'2014-02-20'
p3225
I0
sS'2010-10-13'
p3226
I0
sS'2010-10-12'
p3227
I0
sS'2010-10-11'
p3228
I0
sS'2010-10-10'
p3229
I0
sS'2010-10-17'
p3230
I0
sS'2010-10-16'
p3231
I0
sS'2010-10-15'
p3232
I0
sS'2010-10-14'
p3233
I0
sS'2010-10-19'
p3234
I0
sS'2010-10-18'
p3235
I0
sS'2012-07-08'
p3236
I0
sS'2012-07-09'
p3237
I0
sS'2015-01-29'
p3238
I0
sS'2007-01-26'
p3239
I0
sS'2015-01-28'
p3240
I0
sS'2012-07-02'
p3241
I0
sS'2008-08-11'
p3242
F3.302
sS'2011-06-13'
p3243
I0
sS'2009-06-30'
p3244
F2.032
sS'2008-06-30'
p3245
I0
sS'2012-07-03'
p3246
I0
sS'2008-08-10'
p3247
I0
sS'2013-05-05'
p3248
I0
sS'2013-05-04'
p3249
I0
sS'2013-05-07'
p3250
I0
sS'2013-05-06'
p3251
I0
sS'2013-05-01'
p3252
I0
sS'2015-05-19'
p3253
I0
sS'2013-05-03'
p3254
I0
sS'2013-05-02'
p3255
I0
sS'2015-05-14'
p3256
I0
sS'2015-05-15'
p3257
I0
sS'2015-05-16'
p3258
I0
sS'2015-05-17'
p3259
I0
sS'2013-05-09'
p3260
I0
sS'2013-05-08'
p3261
I0
sS'2015-05-12'
p3262
I0
sS'2015-05-13'
p3263
I0
sS'2015-01-25'
p3264
I0
sS'2015-01-24'
p3265
I0
sS'2015-01-27'
p3266
I0
sS'2015-01-26'
p3267
I0
sS'2015-01-21'
p3268
I0
sS'2015-01-20'
p3269
I0
sS'2013-06-28'
p3270
I0
sS'2013-06-29'
p3271
I0
sS'2013-06-26'
p3272
I0
sS'2013-06-27'
p3273
I0
sS'2013-06-24'
p3274
I0
sS'2013-06-25'
p3275
I0
sS'2013-06-22'
p3276
I0
sS'2013-06-23'
p3277
I0
sS'2013-06-20'
p3278
F20.066
sS'2013-06-21'
p3279
F3.302
sS'2012-03-30'
p3280
I0
sS'2012-11-30'
p3281
I0
sS'2010-05-24'
p3282
I0
s.