(dp0
I2006
(lp1
S'0.5'
p2
aS'1.7'
p3
aS'2.4'
p4
aS'0'
p5
aS'0.1'
p6
aS'17.3'
p7
aS'106.2'
p8
aS'111.3'
p9
aS'77.1'
p10
aS'33.5'
p11
aS'1.1'
p12
aS'7.7'
p13
asI2007
(lp14
S'26.6'
p15
aS'0.2'
p16
aS'5'
p17
aS'0.3'
p18
aS'0.5'
p19
aS'12.4'
p20
aS'103.8'
p21
aS'88.9'
p22
aS'157'
p23
aS'1.1'
p24
aS'28.2'
p25
aS'20.5'
p26
asI2008
(lp27
S'11'
p28
aS'3.5'
p29
aS'0.4'
p30
ag5
aS'0.8'
p31
aS'21.3'
p32
aS'123.5'
p33
aS'161'
p34
aS'107.3'
p35
aS'14.2'
p36
aS'12.7'
p37
aS'2.1'
p38
asI2009
(lp39
S'7.8'
p40
aS'6.1'
p41
aS'4.8'
p42
aS'0.2'
p43
aS'11.1'
p44
aS'40.8'
p45
aS'108'
p46
aS'95.7'
p47
aS'70.8'
p48
aS'85.8'
p49
aS'5.9'
p50
aS'7.9'
p51
asI2010
(lp52
S'59.8'
p53
aS'31.3'
p54
aS'6.4'
p55
aS'6.2'
p56
ag5
aS'5.1'
p57
aS'130.7'
p58
aS'117.9'
p59
aS'80'
p60
aS'10.7'
p61
ag5
aS'4.9'
p62
asI2011
(lp63
S'0.7'
p64
aS'1.7'
p65
aS'0.1'
p66
aS'1.6'
p67
aS'0.1'
p68
aS'7'
p69
aS'117'
p70
aS'103.6'
p71
aS'38.5'
p72
aS'3.5'
p73
aS'61.7'
p74
aS'24.6'
p75
asI2012
(lp76
S'2.9'
p77
aS'8.5'
p78
aS'2.7'
p79
aS'0.5'
p80
aS'1.2'
p81
aS'20.2'
p82
aS'122.7'
p83
aS'117.9'
p84
aS'72.2'
p85
aS'4.2'
p86
aS'1.7'
p87
aS'27.4'
p88
asI2013
(lp89
S'19.1'
p90
aS'5.1'
p91
aS'2.2'
p92
aS'1'
p93
aS'0.9'
p94
aS'9.7'
p95
aS'148.3'
p96
aS'97.3'
p97
aS'81'
p98
aS'25.1'
p99
aS'28.6'
p100
aS'28.4'
p101
asI2014
(lp102
S'0.5'
p103
aS'0.7'
p104
aS'10'
p105
aS'0.5'
p106
ag93
aS'9'
p107
aS'139'
p108
aS'146'
p109
aS'139'
p110
aS'14'
p111
aS'12'
p112
aS'8'
p113
asI2015
(lp114
S'54'
p115
aS'19'
p116
aS'41'
p117
aS'18'
p118
aS'3'
p119
aS'76'
p120
aS'131'
p121
aS'119'
p122
aS'116'
p123
aS'34'
p124
aS'27'
p125
ag69
as.