(dp0
I2006
(lp1
S'0.3'
p2
aS'0'
p3
aS'0.6'
p4
aS'3'
p5
aS'54.3'
p6
aS'273.5'
p7
aS'290.1'
p8
aS'239.7'
p9
aS'246.1'
p10
aS'148'
p11
aS'38.8'
p12
aS'0.3'
p13
asI2007
(lp14
S'1'
p15
aS'0.9'
p16
aS'0.2'
p17
aS'16.4'
p18
aS'41.9'
p19
aS'132.6'
p20
aS'242.4'
p21
aS'416.3'
p22
aS'194.9'
p23
aS'140.3'
p24
aS'2'
p25
aS'4.3'
p26
asI2008
(lp27
g3
ag3
aS'0.1'
p28
aS'11.2'
p29
aS'15.4'
p30
aS'208.2'
p31
aS'296.5'
p32
aS'295.7'
p33
aS'251.3'
p34
aS'190.2'
p35
aS'3.8'
p36
ag3
asI2009
(lp37
S'0.6'
p38
aS'3.3'
p39
aS'0.1'
p40
aS'2.1'
p41
aS'60.1'
p42
aS'240.9'
p43
aS'158.1'
p44
aS'166.7'
p45
aS'214.3'
p46
aS'137.8'
p47
aS'6.3'
p48
aS'0.8'
p49
asI2010
(lp50
S'36.4'
p51
aS'113.9'
p52
ag3
ag3
aS'7.4'
p53
aS'201.7'
p54
aS'318.4'
p55
aS'518.2'
p56
aS'310'
p57
aS'9'
p58
aS'6'
p59
ag3
asI2011
(lp60
g3
ag3
aS'0.7'
p61
aS'9.6'
p62
aS'33.9'
p63
aS'278.7'
p64
aS'312.2'
p65
aS'298.5'
p66
aS'158'
p67
aS'100'
p68
aS'2.5'
p69
aS'0.3'
p70
asI2012
(lp71
S'2.3'
p72
aS'6.1'
p73
aS'2.5'
p74
aS'4.9'
p75
aS'38.4'
p76
aS'217.1'
p77
aS'150.9'
p78
aS'243.9'
p79
aS'185.4'
p80
aS'98.8'
p81
aS'10.7'
p82
aS'0.5'
p83
asI2013
(lp84
S'7'
p85
aS'0.1'
p86
aS'7.5'
p87
aS'7.1'
p88
aS'69.6'
p89
aS'195.7'
p90
aS'154.4'
p91
aS'156.3'
p92
aS'535.5'
p93
aS'103.2'
p94
aS'29.9'
p95
aS'4.4'
p96
asI2014
(lp97
g25
aS'0.2'
p98
ag15
ag85
aS'134'
p99
aS'217'
p100
aS'105'
p101
aS'244'
p102
aS'281'
p103
aS'191'
p104
aS'29'
p105
aS'13'
p106
asI2015
(lp107
S'0.3'
p108
ag5
aS'42'
p109
ag5
aS'112'
p110
aS'142'
p111
aS'148'
p112
aS'150'
p113
aS'234'
p114
aS'128'
p115
aS'32'
p116
aS'11'
p117
as.