(dp0
I2006
(lp1
S'0.5'
p2
aS'0'
p3
ag3
ag3
aS'0.4'
p4
aS'73.5'
p5
aS'296'
p6
aS'292.9'
p7
aS'276.6'
p8
aS'54.2'
p9
aS'0.4'
p10
aS'7.5'
p11
asI2007
(lp12
S'21'
p13
aS'1.4'
p14
ag3
ag3
aS'0.1'
p15
aS'121.3'
p16
aS'296.3'
p17
aS'370.1'
p18
aS'192.5'
p19
aS'48.9'
p20
aS'3.4'
p21
ag3
asI2008
(lp22
g3
ag3
aS'0.4'
p23
ag3
aS'0.1'
p24
aS'151'
p25
aS'486.4'
p26
aS'479.4'
p27
aS'326.2'
p28
aS'105.2'
p29
aS'1.8'
p30
aS'0.1'
p31
asI2009
(lp32
g3
ag3
ag3
ag3
aS'15.5'
p33
aS'249.7'
p34
aS'251.1'
p35
aS'296'
p36
aS'215.3'
p37
aS'131.6'
p38
aS'47.2'
p39
aS'74.8'
p40
asI2010
(lp41
S'19.6'
p42
aS'124.2'
p43
aS'0.3'
p44
aS'0.1'
p45
aS'0.2'
p46
aS'54'
p47
aS'471.2'
p48
aS'507.4'
p49
aS'462.5'
p50
aS'10.3'
p51
ag3
ag3
asI2011
(lp52
S'0.7'
p53
ag3
ag3
ag3
ag3
aS'91.2'
p54
aS'390.7'
p55
aS'436.4'
p56
aS'181.3'
p57
aS'28.4'
p58
aS'0.5'
p59
ag3
asI2012
(lp60
S'0.5'
p61
aS'30.3'
p62
ag3
aS'0.2'
p63
aS'3'
p64
aS'208.1'
p65
aS'253.8'
p66
aS'325.5'
p67
aS'194'
p68
aS'37.7'
p69
aS'2.3'
p70
aS'4.7'
p71
asI2013
(lp72
S'18.7'
p73
aS'0.5'
p74
aS'0.5'
p75
aS'1'
p76
aS'5.1'
p77
aS'151.4'
p78
aS'216.7'
p79
aS'289.9'
p80
aS'324.2'
p81
aS'32.9'
p82
aS'91.4'
p83
aS'77.3'
p84
asI2014
(lp85
S'9'
p86
aS'0.2'
p87
ag76
ag76
aS'19'
p88
aS'264'
p89
aS'171'
p90
aS'348'
p91
aS'247'
p92
aS'138'
p93
aS'89'
p94
aS'6'
p95
asI2015
(lp96
S'42'
p97
aS'83'
p98
aS'88'
p99
ag64
ag86
aS'145'
p100
aS'203'
p101
aS'233'
p102
aS'360'
p103
aS'177'
p104
aS'34'
p105
aS'66'
p106
as.