(dp0
I2006
(lp1
S'59'
p2
aS'31.1'
p3
aS'23'
p4
aS'25.1'
p5
aS'82.9'
p6
aS'226.4'
p7
aS'325.9'
p8
aS'211.3'
p9
aS'241'
p10
aS'188.6'
p11
aS'136.3'
p12
aS'103.6'
p13
asI2007
(lp14
S'53.8'
p15
aS'73.9'
p16
aS'18.5'
p17
aS'41.7'
p18
aS'40.3'
p19
aS'105.5'
p20
aS'131.6'
p21
aS'346.1'
p22
aS'304.2'
p23
aS'226.2'
p24
aS'105.9'
p25
aS'54.9'
p26
asI2008
(lp27
S'50.2'
p28
aS'31.6'
p29
aS'17.9'
p30
aS'48.2'
p31
aS'72.8'
p32
aS'308.2'
p33
aS'249.7'
p34
aS'125'
p35
aS'387.1'
p36
aS'203.8'
p37
aS'53.8'
p38
aS'25.6'
p39
asI2009
(lp40
S'38.5'
p41
aS'49'
p42
aS'9.3'
p43
aS'28.9'
p44
aS'63.3'
p45
aS'160.2'
p46
aS'165.5'
p47
aS'217'
p48
aS'358.2'
p49
aS'193.1'
p50
aS'107.2'
p51
aS'80.1'
p52
asI2010
(lp53
S'80.4'
p54
aS'59.5'
p55
aS'19.7'
p56
aS'89'
p57
aS'23.7'
p58
aS'131.9'
p59
aS'432.2'
p60
aS'395.6'
p61
aS'397.2'
p62
aS'87'
p63
aS'47.5'
p64
aS'27.4'
p65
asI2011
(lp66
S'76.4'
p67
aS'18.5'
p68
aS'21.8'
p69
aS'14.6'
p70
aS'35'
p71
aS'206.7'
p72
aS'374.2'
p73
aS'247'
p74
aS'264.4'
p75
aS'149'
p76
aS'102.4'
p77
aS'43.5'
p78
asI2012
(lp79
S'87.4'
p80
aS'47.3'
p81
aS'25.9'
p82
aS'59.8'
p83
aS'91.8'
p84
aS'228'
p85
aS'205.6'
p86
aS'406.8'
p87
aS'258.1'
p88
aS'164.7'
p89
aS'89.2'
p90
aS'31.3'
p91
asI2013
(lp92
S'28.7'
p93
aS'29.3'
p94
aS'30.8'
p95
aS'19.1'
p96
aS'120.3'
p97
aS'254.6'
p98
aS'158.7'
p99
aS'265.2'
p100
aS'408.6'
p101
aS'225.6'
p102
aS'234.7'
p103
aS'77'
p104
asI2014
(lp105
S'33'
p106
aS'11'
p107
aS'36'
p108
aS'25'
p109
aS'127'
p110
aS'256'
p111
aS'156'
p112
aS'149'
p113
aS'356'
p114
aS'270'
p115
aS'67'
p116
aS'53'
p117
asI2015
(lp118
S'80'
p119
aS'21'
p120
aS'99'
p121
aS'50'
p122
aS'70'
p123
aS'152'
p124
aS'149'
p125
aS'157'
p126
aS'201'
p127
aS'259'
p128
aS'192'
p129
aS'58'
p130
as.