(dp0
S'2006'
p1
(lp2
cnumpy.core.multiarray
scalar
p3
(cnumpy
dtype
p4
(S'f8'
p5
I0
I1
tp6
Rp7
(I3
S'<'
p8
NNNI-1
I-1
I0
tp9
bS'\x00\x00\x00\x00\x00\x00\xf8\x7f'
p10
tp11
Rp12
asS'2007'
p13
(lp14
sS'2015'
p15
(lp16
sS'2014'
p17
(lp18
sS'2008'
p19
(lp20
sS'2009'
p21
(lp22
sS'2011'
p23
(lp24
sS'2010'
p25
(lp26
sS'2013'
p27
(lp28
sS'2012'
p29
(lp30
s.