(dp0
I1
(dp1
I2006
(lp2
I1
aI2
aI2
aI3
aI1
aI2
aI1
aI0
aI0
aI0
aI0
aI0
asI2007
(lp3
I0
aI0
aI0
aI1
aI1
aI0
aI0
aI0
aI1
aI0
aI0
aI0
asI2008
(lp4
I0
aI0
aI1
aI1
aI1
aI1
aI0
aI0
aI0
aI0
aI0
aI0
asI2009
(lp5
I0
aI0
aI0
aI0
aI0
aI0
aI0
aI1
aI1
aI1
aI1
aI0
asI2010
(lp6
I0
aI0
aI0
aI0
aI0
aI0
aI0
aI0
aI0
aI0
aI0
aI0
asI2011
(lp7
I0
aI0
aI1
aI3
aI3
aI3
aI4
aI3
aI3
aI3
aI4
aI4
asI2012
(lp8
I3
aI1
aI2
aI2
aI1
aI1
aI0
aI0
aI0
aI0
aI0
aI0
asI2013
(lp9
I0
aI0
aI0
aI0
aI1
aI0
aI0
aI0
aI0
aI0
aI0
aI0
asI2014
(lp10
I0
aI0
aI0
aI1
aI0
aI0
aI0
aI0
aI0
aI0
aI0
aI0
asI2015
(lp11
I0
aI0
aI0
aI0
aI0
aI0
aI0
aI0
aI0
aI0
aI0
aI0
assI2
(dp12
I2006
(lp13
I1
aI1
aI0
aI0
aI0
aI0
aI0
aI0
aI0
aI1
aI2
aI2
asI2007
(lp14
I2
aI2
aI2
aI3
aI3
aI3
aI4
aI4
aI4
aI4
aI3
aI3
asI2008
(lp15
I1
aI1
aI1
aI1
aI1
aI2
aI2
aI2
aI2
aI2
aI3
aI2
asI2009
(lp16
I2
aI2
aI1
aI2
aI2
aI2
aI2
aI2
aI2
aI2
aI2
aI2
asI2010
(lp17
I1
aI0
aI0
aI0
aI0
aI0
aI0
aI0
aI0
aI0
aI0
aI0
asI2011
(lp18
I0
aI0
aI0
aI0
aI0
aI0
aI0
aI0
aI0
aI1
aI0
aI0
asI2012
(lp19
I0
aI0
aI0
aI0
aI0
aI0
aI0
aI0
aI0
aI0
aI0
aI0
asI2013
(lp20
I0
aI0
aI0
aI1
aI1
aI1
aI1
aI1
aI1
aI1
aI1
aI1
asI2014
(lp21
I1
aI2
aI2
aI2
aI2
aI3
aI3
aI3
aI3
aI3
aI2
aI2
asI2015
(lp22
I2
aI2
aI3
aI3
aI3
aI3
aI3
aI3
aI3
aI3
aI3
aI2
assI3
(dp23
I2006
(lp24
I1
aI1
aI1
aI1
aI2
aI2
aI1
aI0
aI0
aI0
aI0
aI0
asI2007
(lp25
I0
aI0
aI2
aI2
aI0
aI1
aI2
aI3
aI0
aI1
aI1
aI1
asI2008
(lp26
I2
aI2
aI2
aI2
aI2
aI2
aI2
aI0
aI0
aI0
aI0
aI1
asI2009
(lp27
I1
aI1
aI1
aI1
aI1
aI1
aI1
aI2
aI0
aI0
aI0
aI0
asI2010
(lp28
I0
aI0
aI0
aI0
aI0
aI0
aI0
aI0
aI0
aI1
aI2
aI2
asI2011
(lp29
I1
aI1
aI2
aI2
aI2
aI2
aI1
aI2
aI2
aI3
aI3
aI3
asI2012
(lp30
I2
aI2
aI2
aI2
aI1
aI1
aI1
aI0
aI0
aI0
aI0
aI0
asI2013
(lp31
I0
aI0
aI0
aI0
aI0
aI0
aI0
aI0
aI0
aI0
aI0
aI0
asI2014
(lp32
I0
aI0
aI0
aI0
aI0
aI0
aI0
aI0
aI0
aI0
aI0
aI0
asI2015
(lp33
I0
aI0
aI0
aI0
aI0
aI0
aI0
aI0
aI0
aI0
aI0
aI0
assI4
(dp34
I2006
(lp35
I0
aI0
aI0
aI0
aI0
aI0
aI0
aI0
aI1
aI0
aI0
aI0
asI2007
(lp36
I0
aI0
aI0
aI1
aI1
aI2
aI2
aI0
aI1
aI0
aI0
aI1
asI2008
(lp37
I1
aI0
aI0
aI1
aI1
aI1
aI1
aI1
aI1
aI0
aI0
aI1
asI2009
(lp38
I1
aI1
aI1
aI2
aI2
aI2
aI2
aI2
aI3
aI3
aI3
aI3
asI2010
(lp39
I3
aI3
aI3
aI3
aI3
aI2
aI0
aI0
aI0
aI0
aI0
aI0
asI2011
(lp40
I0
aI0
aI0
aI2
aI3
aI2
aI1
aI1
aI0
aI0
aI0
aI0
asI2012
(lp41
I0
aI0
aI0
aI0
aI0
aI0
aI0
aI0
aI0
aI0
aI0
aI0
asI2013
(lp42
I0
aI0
aI0
aI0
aI0
aI0
aI0
aI0
aI0
aI0
aI0
aI0
asI2014
(lp43
I0
aI0
aI0
aI0
aI0
aI0
aI0
aI0
aI0
aI0
aI0
aI0
asI2015
(lp44
I0
aI0
aI0
aI0
aI0
aI0
aI1
aI1
aI1
aI1
aI0
aI0
assI5
(dp45
I2006
(lp46
I1
aI1
aI1
aI2
aI2
aI3
aI3
aI3
aI0
aI2
aI1
aI1
asI2007
(lp47
I1
aI1
aI0
aI1
aI0
aI0
aI0
aI0
aI0
aI0
aI0
aI1
asI2008
(lp48
I1
aI1
aI2
aI2
aI1
aI2
aI1
aI0
aI0
aI0
aI0
aI0
asI2009
(lp49
I1
aI1
aI0
aI1
aI1
aI1
aI1
aI2
aI1
aI0
aI1
aI1
asI2010
(lp50
I0
aI0
aI0
aI0
aI0
aI0
aI0
aI0
aI0
aI0
aI1
aI1
asI2011
(lp51
I1
aI0
aI3
aI4
aI4
aI4
aI3
aI3
aI4
aI4
aI4
aI4
asI2012
(lp52
I3
aI3
aI2
aI2
aI2
aI2
aI2
aI1
aI1
aI1
aI1
aI1
asI2013
(lp53
I1
aI1
aI2
aI2
aI1
aI0
aI0
aI0
aI0
aI0
aI0
aI0
asI2014
(lp54
I0
aI0
aI0
aI0
aI0
aI0
aI0
aI0
aI0
aI0
aI0
aI0
asI2015
(lp55
I0
aI0
aI0
aI0
aI0
aI0
aI0
aI0
aI0
aI0
aI0
aI0
assI6
(dp56
I2006
(lp57
I2
aI2
aI3
aI3
aI1
aI2
aI0
aI1
aI0
aI0
aI0
aI0
asI2007
(lp58
I1
aI0
aI2
aI3
aI2
aI4
aI3
aI1
aI0
aI0
aI0
aI0
asI2008
(lp59
I1
aI1
aI2
aI2
aI2
aI2
aI1
aI1
aI0
aI0
aI0
aI0
asI2009
(lp60
I1
aI1
aI2
aI2
aI2
aI2
aI2
aI2
aI3
aI2
aI2
aI2
asI2010
(lp61
I2
aI0
aI0
aI0
aI0
aI0
aI0
aI0
aI0
aI0
aI1
aI0
asI2011
(lp62
I1
aI0
aI1
aI2
aI2
aI2
aI0
aI0
aI0
aI0
aI0
aI0
asI2012
(lp63
I0
aI0
aI0
aI0
aI0
aI0
aI0
aI0
aI0
aI0
aI0
aI0
asI2013
(lp64
I0
aI0
aI0
aI0
aI0
aI0
aI1
aI0
aI0
aI0
aI0
aI0
asI2014
(lp65
I0
aI0
aI0
aI0
aI0
aI0
aI0
aI0
aI0
aI0
aI0
aI0
asI2015
(lp66
I0
aI0
aI0
aI0
aI0
aI0
aI0
aI0
aI1
aI0
aI0
aI0
assI7
(dp67
I2006
(lp68
I0
aI0
aI0
aI0
aI0
aI0
aI0
aI0
aI0
aI0
aI0
aI0
asI2007
(lp69
I0
aI0
aI0
aI1
aI1
aI1
aI1
aI0
aI1
aI0
aI0
aI0
asI2008
(lp70
I0
aI0
aI0
aI0
aI0
aI0
aI0
aI0
aI0
aI0
aI0
aI1
asI2009
(lp71
I1
aI1
aI1
aI1
aI0
aI0
aI1
aI1
aI2
aI2
aI2
aI2
asI2010
(lp72
I3
aI3
aI2
aI3
aI2
aI2
aI0
aI0
aI0
aI0
aI0
aI0
asI2011
(lp73
I0
aI0
aI0
aI1
aI0
aI0
aI0
aI0
aI0
aI0
aI0
aI0
asI2012
(lp74
I0
aI0
aI0
aI0
aI0
aI0
aI0
aI0
aI0
aI0
aI0
aI0
asI2013
(lp75
I0
aI0
aI0
aI0
aI0
aI0
aI0
aI0
aI0
aI0
aI0
aI0
asI2014
(lp76
I0
aI0
aI0
aI0
aI0
aI0
aI0
aI0
aI0
aI0
aI0
aI0
asI2015
(lp77
I0
aI0
aI0
aI0
aI0
aI0
aI1
aI1
aI1
aI1
aI0
aI0
assI8
(dp78
I2006
(lp79
I1
aI2
aI2
aI3
aI3
aI3
aI2
aI0
aI0
aI0
aI0
aI0
asI2007
(lp80
I0
aI0
aI0
aI0
aI0
aI0
aI0
aI0
aI0
aI1
aI1
aI0
asI2008
(lp81
I0
aI1
aI1
aI1
aI1
aI2
aI0
aI0
aI0
aI0
aI0
aI0
asI2009
(lp82
I0
aI0
aI0
aI0
aI0
aI0
aI0
aI0
aI0
aI0
aI0
aI0
asI2010
(lp83
I0
aI0
aI0
aI0
aI0
aI0
aI0
aI0
aI0
aI0
aI0
aI1
asI2011
(lp84
I1
aI1
aI3
aI4
aI4
aI4
aI4
aI4
aI3
aI4
aI4
aI3
asI2012
(lp85
I3
aI3
aI3
aI3
aI2
aI2
aI2
aI1
aI1
aI1
aI0
aI0
asI2013
(lp86
I0
aI0
aI0
aI0
aI1
aI0
aI0
aI0
aI0
aI0
aI0
aI0
asI2014
(lp87
I0
aI0
aI0
aI0
aI0
aI1
aI1
aI0
aI0
aI0
aI0
aI0
asI2015
(lp88
I0
aI0
aI0
aI0
aI0
aI0
aI0
aI0
aI0
aI0
aI0
aI0
assI9
(dp89
I2006
(lp90
I0
aI0
aI0
aI0
aI0
aI0
aI0
aI0
aI0
aI0
aI0
aI0
asI2007
(lp91
I0
aI0
aI0
aI0
aI0
aI0
aI0
aI0
aI0
aI0
aI0
aI0
asI2008
(lp92
I0
aI0
aI0
aI0
aI0
aI0
aI0
aI0
aI0
aI0
aI0
aI0
asI2009
(lp93
I0
aI0
aI0
aI0
aI0
aI0
aI0
aI0
aI0
aI0
aI0
aI0
asI2010
(lp94
I0
aI0
aI0
aI0
aI0
aI0
aI0
aI0
aI0
aI0
aI0
aI0
asI2011
(lp95
I0
aI0
aI0
aI0
aI0
aI0
aI0
aI0
aI0
aI0
aI0
aI0
asI2012
(lp96
I0
aI0
aI0
aI0
aI0
aI0
aI0
aI0
aI0
aI0
aI0
aI0
asI2013
(lp97
I0
aI0
aI0
aI0
aI0
aI0
aI0
aI0
aI0
aI0
aI0
aI0
asI2014
(lp98
I0
aI0
aI0
aI0
aI0
aI0
aI0
aI0
aI0
aI0
aI0
aI0
asI2015
(lp99
I0
aI0
aI0
aI0
aI0
aI0
aI0
aI0
aI0
aI0
aI0
aI0
assI10
(dp100
I2006
(lp101
I1
aI2
aI2
aI3
aI2
aI3
aI2
aI1
aI0
aI0
aI0
aI0
asI2007
(lp102
I0
aI0
aI0
aI2
aI1
aI0
aI0
aI0
aI0
aI1
aI1
aI1
asI2008
(lp103
I1
aI1
aI2
aI2
aI2
aI3
aI2
aI0
aI0
aI0
aI0
aI0
asI2009
(lp104
I0
aI0
aI0
aI0
aI0
aI0
aI0
aI0
aI0
aI0
aI0
aI0
asI2010
(lp105
I0
aI0
aI0
aI0
aI0
aI0
aI0
aI0
aI0
aI0
aI0
aI0
asI2011
(lp106
I0
aI0
aI2
aI3
aI3
aI4
aI3
aI3
aI2
aI3
aI4
aI4
asI2012
(lp107
I4
aI3
aI3
aI3
aI2
aI3
aI2
aI1
aI1
aI0
aI0
aI0
asI2013
(lp108
I0
aI0
aI0
aI1
aI1
aI1
aI1
aI0
aI0
aI0
aI0
aI0
asI2014
(lp109
I0
aI0
aI0
aI0
aI0
aI0
aI0
aI0
aI0
aI0
aI0
aI0
asI2015
(lp110
I0
aI0
aI0
aI0
aI0
aI0
aI0
aI0
aI0
aI0
aI0
aI0
assI11
(dp111
I2006
(lp112
I1
aI1
aI2
aI3
aI1
aI2
aI1
aI0
aI0
aI0
aI0
aI0
asI2007
(lp113
I0
aI0
aI0
aI0
aI0
aI0
aI0
aI0
aI0
aI0
aI0
aI0
asI2008
(lp114
I1
aI1
aI1
aI1
aI2
aI2
aI1
aI1
aI0
aI0
aI0
aI0
asI2009
(lp115
I1
aI1
aI1
aI1
aI1
aI1
aI2
aI2
aI2
aI2
aI2
aI2
asI2010
(lp116
I1
aI0
aI0
aI0
aI0
aI0
aI0
aI0
aI0
aI0
aI0
aI0
asI2011
(lp117
I0
aI0
aI1
aI2
aI2
aI3
aI3
aI2
aI2
aI3
aI3
aI3
asI2012
(lp118
I3
aI2
aI1
aI0
aI0
aI0
aI0
aI0
aI0
aI0
aI0
aI0
asI2013
(lp119
I0
aI0
aI0
aI0
aI1
aI0
aI0
aI0
aI0
aI0
aI0
aI0
asI2014
(lp120
I0
aI0
aI0
aI0
aI0
aI0
aI0
aI0
aI0
aI0
aI0
aI0
asI2015
(lp121
I0
aI0
aI0
aI0
aI0
aI0
aI0
aI0
aI0
aI0
aI0
aI0
assI12
(dp122
I2006
(lp123
I1
aI1
aI1
aI1
aI0
aI0
aI0
aI0
aI0
aI0
aI0
aI0
asI2007
(lp124
I0
aI0
aI1
aI0
aI0
aI0
aI0
aI0
aI0
aI0
aI0
aI0
asI2008
(lp125
I0
aI1
aI1
aI1
aI1
aI1
aI0
aI0
aI0
aI0
aI0
aI0
asI2009
(lp126
I0
aI0
aI0
aI0
aI0
aI0
aI0
aI1
aI0
aI0
aI0
aI0
asI2010
(lp127
I0
aI0
aI0
aI0
aI0
aI0
aI0
aI0
aI0
aI0
aI0
aI0
asI2011
(lp128
I0
aI0
aI1
aI1
aI1
aI0
aI0
aI0
aI0
aI0
aI0
aI0
asI2012
(lp129
I0
aI0
aI0
aI0
aI0
aI0
aI0
aI0
aI0
aI0
aI0
aI0
asI2013
(lp130
I0
aI0
aI0
aI0
aI0
aI0
aI0
aI0
aI0
aI0
aI0
aI0
asI2014
(lp131
I0
aI0
aI0
aI0
aI0
aI0
aI0
aI0
aI0
aI0
aI0
aI0
asI2015
(lp132
I0
aI0
aI0
aI0
aI0
aI0
aI1
aI1
aI1
aI1
aI0
aI0
assI13
(dp133
I2006
(lp134
I0
aI1
aI1
aI1
aI0
aI1
aI1
aI0
aI0
aI0
aI1
aI0
asI2007
(lp135
I1
aI0
aI0
aI0
aI0
aI0
aI0
aI0
aI0
aI0
aI0
aI0
asI2008
(lp136
I0
aI0
aI0
aI0
aI0
aI0
aI0
aI0
aI0
aI0
aI0
aI0
asI2009
(lp137
I0
aI0
aI0
aI0
aI0
aI0
aI0
aI2
aI0
aI0
aI0
aI0
asI2010
(lp138
I0
aI0
aI0
aI0
aI0
aI0
aI0
aI0
aI0
aI0
aI0
aI0
asI2011
(lp139
I0
aI0
aI0
aI2
aI3
aI3
aI2
aI2
aI0
aI1
aI1
aI1
asI2012
(lp140
I0
aI0
aI0
aI0
aI0
aI0
aI0
aI0
aI0
aI0
aI0
aI0
asI2013
(lp141
I0
aI0
aI0
aI1
aI1
aI0
aI0
aI0
aI0
aI0
aI0
aI0
asI2014
(lp142
I0
aI0
aI0
aI0
aI0
aI0
aI0
aI0
aI0
aI0
aI0
aI0
asI2015
(lp143
I0
aI0
aI0
aI0
aI0
aI0
aI0
aI0
aI0
aI0
aI0
aI0
assI14
(dp144
I2006
(lp145
I1
aI2
aI3
aI3
aI2
aI2
aI1
aI0
aI0
aI0
aI0
aI0
asI2007
(lp146
I0
aI0
aI1
aI2
aI2
aI2
aI1
aI0
aI0
aI1
aI1
aI1
asI2008
(lp147
I2
aI2
aI2
aI2
aI2
aI2
aI1
aI1
aI0
aI0
aI0
aI0
asI2009
(lp148
I0
aI0
aI1
aI1
aI1
aI1
aI1
aI2
aI2
aI2
aI2
aI2
asI2010
(lp149
I2
aI0
aI0
aI0
aI0
aI0
aI0
aI0
aI0
aI0
aI0
aI0
asI2011
(lp150
I0
aI0
aI1
aI2
aI2
aI3
aI2
aI2
aI1
aI2
aI2
aI2
asI2012
(lp151
I2
aI0
aI0
aI0
aI0
aI0
aI0
aI0
aI0
aI0
aI0
aI0
asI2013
(lp152
I0
aI0
aI0
aI0
aI0
aI0
aI0
aI0
aI0
aI0
aI0
aI0
asI2014
(lp153
I0
aI0
aI0
aI0
aI0
aI0
aI0
aI0
aI0
aI0
aI0
aI0
asI2015
(lp154
I0
aI0
aI0
aI0
aI0
aI0
aI0
aI0
aI0
aI0
aI0
aI0
assI15
(dp155
I2006
(lp156
I1
aI2
aI2
aI2
aI1
aI1
aI1
aI0
aI0
aI0
aI0
aI0
asI2007
(lp157
I0
aI0
aI0
aI0
aI0
aI1
aI0
aI0
aI0
aI0
aI0
aI0
asI2008
(lp158
I0
aI0
aI1
aI1
aI1
aI1
aI1
aI1
aI1
aI1
aI2
aI2
asI2009
(lp159
I2
aI2
aI2
aI2
aI2
aI2
aI2
aI2
aI1
aI1
aI1
aI1
asI2010
(lp160
I1
aI0
aI0
aI0
aI0
aI0
aI0
aI0
aI0
aI0
aI0
aI0
asI2011
(lp161
I0
aI0
aI1
aI2
aI2
aI3
aI2
aI2
aI0
aI0
aI0
aI0
asI2012
(lp162
I0
aI0
aI0
aI0
aI0
aI0
aI0
aI0
aI0
aI0
aI0
aI0
asI2013
(lp163
I0
aI0
aI0
aI1
aI0
aI0
aI0
aI0
aI0
aI0
aI0
aI0
asI2014
(lp164
I0
aI0
aI0
aI0
aI0
aI0
aI0
aI0
aI0
aI0
aI0
aI0
asI2015
(lp165
I0
aI0
aI0
aI0
aI0
aI0
aI0
aI0
aI0
aI0
aI0
aI0
assI16
(dp166
I2006
(lp167
I2
aI2
aI3
aI3
aI1
aI2
aI0
aI0
aI0
aI0
aI0
aI0
asI2007
(lp168
I0
aI0
aI0
aI1
aI1
aI1
aI2
aI0
aI0
aI1
aI1
aI1
asI2008
(lp169
I1
aI2
aI2
aI2
aI3
aI3
aI2
aI2
aI1
aI1
aI1
aI1
asI2009
(lp170
I1
aI1
aI1
aI1
aI1
aI1
aI2
aI3
aI2
aI2
aI2
aI2
asI2010
(lp171
I2
aI0
aI0
aI0
aI0
aI0
aI0
aI0
aI0
aI0
aI0
aI0
asI2011
(lp172
I0
aI0
aI1
aI2
aI1
aI3
aI2
aI2
aI1
aI1
aI1
aI1
asI2012
(lp173
I1
aI0
aI0
aI0
aI0
aI0
aI0
aI0
aI0
aI0
aI0
aI0
asI2013
(lp174
I0
aI0
aI0
aI0
aI0
aI0
aI0
aI0
aI0
aI0
aI0
aI0
asI2014
(lp175
I0
aI0
aI0
aI0
aI0
aI0
aI0
aI0
aI0
aI0
aI0
aI0
asI2015
(lp176
I1
aI0
aI0
aI0
aI0
aI0
aI0
aI1
aI1
aI1
aI1
aI0
assI17
(dp177
I2006
(lp178
I1
aI2
aI1
aI2
aI1
aI1
aI1
aI0
aI0
aI0
aI0
aI0
asI2007
(lp179
I0
aI0
aI0
aI0
aI1
aI3
aI1
aI0
aI0
aI0
aI0
aI0
asI2008
(lp180
I0
aI1
aI1
aI1
aI1
aI1
aI0
aI0
aI0
aI0
aI1
aI1
asI2009
(lp181
I1
aI1
aI1
aI1
aI1
aI1
aI1
aI1
aI1
aI1
aI1
aI1
asI2010
(lp182
I1
aI0
aI0
aI0
aI0
aI0
aI0
aI0
aI0
aI0
aI0
aI0
asI2011
(lp183
I0
aI0
aI1
aI2
aI2
aI3
aI2
aI2
aI0
aI0
aI0
aI0
asI2012
(lp184
I0
aI0
aI0
aI0
aI0
aI0
aI0
aI0
aI0
aI0
aI0
aI0
asI2013
(lp185
I0
aI0
aI0
aI0
aI0
aI0
aI0
aI0
aI0
aI0
aI0
aI0
asI2014
(lp186
I0
aI0
aI0
aI0
aI0
aI0
aI0
aI0
aI0
aI0
aI0
aI0
asI2015
(lp187
I0
aI0
aI0
aI0
aI0
aI0
aI0
aI0
aI0
aI0
aI0
aI0
assI18
(dp188
I2006
(lp189
I1
aI2
aI3
aI3
aI3
aI3
aI2
aI1
aI1
aI0
aI0
aI1
asI2007
(lp190
I1
aI1
aI1
aI3
aI2
aI2
aI2
aI0
aI1
aI1
aI2
aI2
asI2008
(lp191
I3
aI3
aI3
aI3
aI4
aI4
aI3
aI2
aI0
aI0
aI0
aI0
asI2009
(lp192
I0
aI0
aI1
aI1
aI0
aI0
aI1
aI1
aI1
aI1
aI1
aI0
asI2010
(lp193
I0
aI0
aI0
aI0
aI0
aI0
aI0
aI0
aI0
aI0
aI0
aI0
asI2011
(lp194
I0
aI0
aI1
aI3
aI3
aI3
aI2
aI1
aI0
aI1
aI1
aI1
asI2012
(lp195
I1
aI1
aI1
aI1
aI1
aI0
aI0
aI0
aI0
aI0
aI0
aI0
asI2013
(lp196
I0
aI1
aI0
aI0
aI1
aI0
aI1
aI1
aI0
aI1
aI0
aI0
asI2014
(lp197
I0
aI0
aI0
aI0
aI0
aI0
aI0
aI0
aI0
aI0
aI0
aI0
asI2015
(lp198
I0
aI0
aI0
aI0
aI0
aI0
aI0
aI1
aI0
aI0
aI0
aI0
assI19
(dp199
I2006
(lp200
I1
aI1
aI1
aI1
aI1
aI2
aI2
aI3
aI0
aI0
aI0
aI0
asI2007
(lp201
I0
aI0
aI0
aI0
aI0
aI0
aI0
aI0
aI0
aI0
aI0
aI0
asI2008
(lp202
I0
aI0
aI2
aI2
aI2
aI2
aI0
aI0
aI0
aI0
aI0
aI0
asI2009
(lp203
I0
aI0
aI0
aI0
aI0
aI0
aI1
aI1
aI1
aI1
aI0
aI0
asI2010
(lp204
I0
aI0
aI0
aI0
aI0
aI0
aI0
aI0
aI0
aI0
aI0
aI0
asI2011
(lp205
I0
aI0
aI3
aI4
aI4
aI4
aI3
aI3
aI3
aI3
aI3
aI3
asI2012
(lp206
I3
aI2
aI1
aI1
aI0
aI0
aI0
aI0
aI1
aI0
aI1
aI1
asI2013
(lp207
I1
aI1
aI1
aI1
aI1
aI1
aI1
aI0
aI0
aI0
aI0
aI0
asI2014
(lp208
I0
aI0
aI0
aI0
aI0
aI1
aI1
aI1
aI0
aI0
aI0
aI0
asI2015
(lp209
I0
aI0
aI0
aI0
aI0
aI0
aI0
aI0
aI0
aI0
aI0
aI0
assI20
(dp210
I2006
(lp211
I0
aI0
aI0
aI0
aI0
aI0
aI0
aI0
aI0
aI0
aI0
aI0
asI2007
(lp212
I0
aI0
aI0
aI0
aI0
aI0
aI0
aI0
aI0
aI0
aI0
aI0
asI2008
(lp213
I0
aI0
aI0
aI0
aI0
aI0
aI0
aI0
aI0
aI0
aI0
aI0
asI2009
(lp214
I0
aI0
aI0
aI0
aI0
aI0
aI0
aI1
aI0
aI0
aI0
aI0
asI2010
(lp215
I0
aI0
aI0
aI0
aI0
aI0
aI0
aI0
aI0
aI0
aI0
aI0
asI2011
(lp216
I0
aI0
aI1
aI0
aI0
aI0
aI0
aI0
aI0
aI0
aI0
aI0
asI2012
(lp217
I0
aI0
aI0
aI0
aI0
aI0
aI0
aI0
aI0
aI0
aI0
aI0
asI2013
(lp218
I0
aI0
aI0
aI0
aI0
aI0
aI0
aI0
aI0
aI0
aI0
aI0
asI2014
(lp219
I0
aI0
aI0
aI0
aI0
aI0
aI0
aI0
aI0
aI0
aI0
aI0
asI2015
(lp220
I0
aI0
aI0
aI0
aI0
aI0
aI0
aI0
aI0
aI0
aI0
aI0
assI21
(dp221
I2006
(lp222
I0
aI1
aI1
aI1
aI0
aI0
aI0
aI1
aI0
aI0
aI0
aI0
asI2007
(lp223
I0
aI0
aI0
aI1
aI0
aI0
aI1
aI0
aI0
aI0
aI0
aI0
asI2008
(lp224
I0
aI0
aI0
aI0
aI1
aI1
aI0
aI0
aI0
aI0
aI0
aI0
asI2009
(lp225
I0
aI0
aI0
aI1
aI1
aI1
aI1
aI1
aI0
aI0
aI0
aI0
asI2010
(lp226
I0
aI0
aI0
aI0
aI0
aI0
aI0
aI0
aI0
aI0
aI0
aI0
asI2011
(lp227
I0
aI0
aI0
aI2
aI2
aI2
aI2
aI1
aI0
aI0
aI0
aI0
asI2012
(lp228
I0
aI0
aI0
aI0
aI0
aI0
aI0
aI0
aI0
aI0
aI0
aI0
asI2013
(lp229
I0
aI0
aI0
aI0
aI0
aI0
aI0
aI0
aI0
aI0
aI0
aI0
asI2014
(lp230
I0
aI0
aI0
aI0
aI0
aI0
aI0
aI0
aI0
aI0
aI0
aI0
asI2015
(lp231
I0
aI0
aI0
aI0
aI0
aI0
aI0
aI0
aI0
aI0
aI0
aI0
assI22
(dp232
I2006
(lp233
I1
aI1
aI1
aI1
aI0
aI1
aI1
aI0
aI0
aI1
aI0
aI0
asI2007
(lp234
I0
aI0
aI0
aI0
aI0
aI0
aI0
aI0
aI0
aI0
aI0
aI0
asI2008
(lp235
I0
aI0
aI0
aI0
aI0
aI0
aI0
aI0
aI0
aI0
aI0
aI0
asI2009
(lp236
I0
aI0
aI0
aI0
aI0
aI1
aI1
aI1
aI0
aI0
aI0
aI0
asI2010
(lp237
I0
aI0
aI0
aI0
aI0
aI0
aI0
aI0
aI0
aI0
aI0
aI0
asI2011
(lp238
I0
aI0
aI1
aI3
aI3
aI3
aI3
aI2
aI2
aI2
aI2
aI3
asI2012
(lp239
I2
aI2
aI0
aI0
aI0
aI0
aI0
aI0
aI0
aI0
aI0
aI0
asI2013
(lp240
I0
aI0
aI0
aI0
aI1
aI0
aI1
aI0
aI0
aI0
aI0
aI0
asI2014
(lp241
I0
aI0
aI0
aI0
aI0
aI0
aI0
aI0
aI0
aI0
aI0
aI0
asI2015
(lp242
I0
aI0
aI0
aI0
aI0
aI0
aI0
aI0
aI0
aI0
aI0
aI0
assI23
(dp243
I2006
(lp244
I0
aI0
aI0
aI0
aI0
aI0
aI0
aI0
aI0
aI1
aI0
aI0
asI2007
(lp245
I0
aI1
aI0
aI2
aI2
aI2
aI1
aI0
aI1
aI1
aI2
aI2
asI2008
(lp246
I2
aI2
aI1
aI1
aI2
aI1
aI0
aI0
aI0
aI0
aI0
aI0
asI2009
(lp247
I0
aI0
aI0
aI1
aI1
aI1
aI1
aI1
aI2
aI2
aI1
aI1
asI2010
(lp248
I1
aI1
aI1
aI2
aI2
aI2
aI1
aI0
aI0
aI0
aI0
aI0
asI2011
(lp249
I0
aI0
aI1
aI1
aI2
aI2
aI1
aI0
aI0
aI0
aI0
aI0
asI2012
(lp250
I0
aI0
aI0
aI0
aI0
aI0
aI0
aI0
aI0
aI0
aI0
aI0
asI2013
(lp251
I0
aI0
aI0
aI0
aI0
aI0
aI0
aI0
aI0
aI0
aI0
aI0
asI2014
(lp252
I0
aI0
aI0
aI0
aI0
aI0
aI0
aI0
aI0
aI0
aI0
aI0
asI2015
(lp253
I0
aI0
aI0
aI0
aI0
aI0
aI0
aI0
aI0
aI0
aI0
aI0
assI24
(dp254
I2006
(lp255
I1
aI0
aI1
aI1
aI0
aI1
aI1
aI0
aI0
aI0
aI0
aI0
asI2007
(lp256
I0
aI0
aI0
aI0
aI0
aI0
aI0
aI0
aI0
aI0
aI0
aI0
asI2008
(lp257
I0
aI0
aI0
aI0
aI0
aI0
aI0
aI0
aI0
aI0
aI0
aI0
asI2009
(lp258
I0
aI0
aI0
aI0
aI0
aI0
aI0
aI0
aI0
aI0
aI0
aI0
asI2010
(lp259
I0
aI0
aI0
aI0
aI0
aI0
aI0
aI0
aI0
aI0
aI0
aI0
asI2011
(lp260
I0
aI0
aI1
aI3
aI3
aI3
aI2
aI2
aI2
aI2
aI2
aI1
asI2012
(lp261
I1
aI0
aI0
aI0
aI0
aI0
aI0
aI0
aI0
aI0
aI0
aI0
asI2013
(lp262
I0
aI0
aI0
aI0
aI1
aI1
aI1
aI1
aI0
aI0
aI0
aI0
asI2014
(lp263
I0
aI0
aI0
aI0
aI0
aI0
aI0
aI0
aI0
aI0
aI0
aI0
asI2015
(lp264
I0
aI0
aI0
aI0
aI0
aI0
aI0
aI0
aI0
aI0
aI0
aI0
assI25
(dp265
I2006
(lp266
I1
aI3
aI4
aI4
aI4
aI4
aI3
aI1
aI0
aI0
aI0
aI0
asI2007
(lp267
I1
aI1
aI2
aI3
aI2
aI2
aI2
aI0
aI0
aI0
aI1
aI1
asI2008
(lp268
I1
aI2
aI2
aI2
aI2
aI1
aI0
aI0
aI0
aI0
aI0
aI0
asI2009
(lp269
I0
aI0
aI1
aI1
aI1
aI0
aI0
aI0
aI0
aI0
aI0
aI0
asI2010
(lp270
I1
aI1
aI1
aI1
aI1
aI1
aI1
aI0
aI1
aI1
aI1
aI1
asI2011
(lp271
I1
aI1
aI2
aI3
aI3
aI3
aI2
aI1
aI0
aI2
aI2
aI2
asI2012
(lp272
I2
aI2
aI2
aI2
aI2
aI0
aI0
aI0
aI0
aI0
aI0
aI0
asI2013
(lp273
I0
aI0
aI0
aI0
aI0
aI1
aI1
aI1
aI0
aI0
aI0
aI0
asI2014
(lp274
I0
aI0
aI0
aI0
aI0
aI0
aI0
aI0
aI0
aI0
aI0
aI0
asI2015
(lp275
I0
aI0
aI0
aI0
aI0
aI0
aI0
aI0
aI0
aI0
aI0
aI0
assI26
(dp276
I2006
(lp277
I2
aI3
aI3
aI3
aI4
aI4
aI3
aI2
aI0
aI0
aI0
aI0
asI2007
(lp278
I0
aI1
aI1
aI2
aI2
aI2
aI2
aI1
aI0
aI0
aI0
aI0
asI2008
(lp279
I0
aI0
aI0
aI1
aI1
aI1
aI0
aI0
aI0
aI0
aI0
aI0
asI2009
(lp280
I0
aI1
aI1
aI1
aI1
aI1
aI0
aI0
aI1
aI0
aI1
aI0
asI2010
(lp281
I0
aI0
aI0
aI0
aI0
aI0
aI0
aI0
aI0
aI0
aI0
aI1
asI2011
(lp282
I1
aI2
aI3
aI3
aI3
aI4
aI3
aI2
aI2
aI3
aI2
aI1
asI2012
(lp283
I1
aI1
aI2
aI2
aI2
aI1
aI1
aI1
aI1
aI0
aI1
aI1
asI2013
(lp284
I1
aI1
aI1
aI1
aI1
aI1
aI1
aI0
aI0
aI0
aI0
aI0
asI2014
(lp285
I1
aI1
aI1
aI1
aI1
aI2
aI1
aI1
aI0
aI0
aI0
aI0
asI2015
(lp286
I0
aI0
aI0
aI0
aI0
aI0
aI0
aI0
aI0
aI0
aI0
aI0
assI27
(dp287
I2006
(lp288
I0
aI0
aI0
aI0
aI0
aI0
aI0
aI0
aI0
aI0
aI0
aI0
asI2007
(lp289
I0
aI0
aI0
aI1
aI2
aI2
aI3
aI2
aI2
aI0
aI0
aI0
asI2008
(lp290
I0
aI0
aI1
aI2
aI2
aI0
aI0
aI0
aI0
aI0
aI1
aI1
asI2009
(lp291
I2
aI2
aI2
aI2
aI2
aI2
aI2
aI2
aI3
aI4
aI3
aI3
asI2010
(lp292
I3
aI3
aI2
aI3
aI3
aI2
aI0
aI0
aI0
aI0
aI0
aI0
asI2011
(lp293
I0
aI0
aI0
aI2
aI2
aI1
aI1
aI1
aI0
aI0
aI0
aI0
asI2012
(lp294
I0
aI0
aI0
aI0
aI0
aI0
aI0
aI0
aI0
aI0
aI0
aI0
asI2013
(lp295
I0
aI0
aI0
aI0
aI0
aI0
aI0
aI0
aI0
aI0
aI0
aI0
asI2014
(lp296
I0
aI0
aI0
aI0
aI0
aI0
aI0
aI0
aI0
aI0
aI0
aI0
asI2015
(lp297
I0
aI0
aI0
aI0
aI0
aI0
aI0
aI2
aI2
aI1
aI0
aI0
assI28
(dp298
I2006
(lp299
I1
aI1
aI1
aI1
aI1
aI2
aI1
aI1
aI1
aI0
aI0
aI0
asI2007
(lp300
I0
aI0
aI0
aI0
aI0
aI0
aI0
aI0
aI0
aI0
aI0
aI0
asI2008
(lp301
I0
aI0
aI0
aI1
aI1
aI1
aI0
aI0
aI0
aI0
aI0
aI0
asI2009
(lp302
I0
aI0
aI0
aI0
aI0
aI0
aI1
aI2
aI1
aI1
aI1
aI0
asI2010
(lp303
I0
aI0
aI0
aI0
aI0
aI0
aI0
aI0
aI0
aI0
aI0
aI0
asI2011
(lp304
I0
aI0
aI1
aI4
aI4
aI3
aI2
aI2
aI2
aI2
aI2
aI1
asI2012
(lp305
I1
aI0
aI0
aI0
aI0
aI0
aI0
aI0
aI1
aI1
aI1
aI1
asI2013
(lp306
I1
aI1
aI1
aI1
aI1
aI1
aI1
aI1
aI0
aI0
aI0
aI0
asI2014
(lp307
I0
aI0
aI0
aI0
aI0
aI0
aI0
aI0
aI0
aI0
aI0
aI0
asI2015
(lp308
I0
aI0
aI0
aI0
aI0
aI0
aI0
aI0
aI0
aI0
aI0
aI0
assI29
(dp309
I2006
(lp310
I1
aI2
aI2
aI2
aI1
aI1
aI1
aI1
aI0
aI0
aI1
aI1
asI2007
(lp311
I0
aI1
aI1
aI1
aI0
aI0
aI0
aI0
aI0
aI0
aI0
aI0
asI2008
(lp312
I0
aI0
aI0
aI0
aI1
aI1
aI1
aI0
aI1
aI1
aI2
aI2
asI2009
(lp313
I2
aI2
aI2
aI1
aI1
aI1
aI2
aI2
aI2
aI2
aI1
aI1
asI2010
(lp314
I0
aI0
aI0
aI0
aI0
aI0
aI0
aI0
aI0
aI0
aI0
aI0
asI2011
(lp315
I0
aI0
aI0
aI2
aI2
aI3
aI2
aI2
aI0
aI0
aI0
aI0
asI2012
(lp316
I0
aI0
aI0
aI0
aI0
aI0
aI0
aI0
aI0
aI0
aI0
aI0
asI2013
(lp317
I0
aI0
aI0
aI0
aI0
aI0
aI0
aI0
aI0
aI0
aI0
aI0
asI2014
(lp318
I0
aI0
aI0
aI0
aI0
aI0
aI0
aI0
aI0
aI0
aI0
aI0
asI2015
(lp319
I0
aI0
aI0
aI0
aI0
aI0
aI0
aI0
aI0
aI0
aI0
aI0
assI30
(dp320
I2006
(lp321
I0
aI0
aI0
aI0
aI0
aI0
aI0
aI1
aI0
aI0
aI0
aI0
asI2007
(lp322
I0
aI0
aI0
aI0
aI0
aI1
aI1
aI0
aI0
aI0
aI0
aI0
asI2008
(lp323
I0
aI0
aI0
aI1
aI1
aI1
aI0
aI1
aI0
aI0
aI0
aI0
asI2009
(lp324
I0
aI0
aI0
aI0
aI0
aI0
aI0
aI1
aI0
aI0
aI0
aI0
asI2010
(lp325
I0
aI0
aI1
aI1
aI1
aI1
aI0
aI0
aI0
aI0
aI0
aI0
asI2011
(lp326
I0
aI0
aI0
aI2
aI2
aI3
aI2
aI1
aI0
aI0
aI0
aI0
asI2012
(lp327
I0
aI0
aI0
aI0
aI0
aI0
aI0
aI0
aI0
aI0
aI0
aI0
asI2013
(lp328
I0
aI0
aI0
aI0
aI0
aI0
aI0
aI0
aI0
aI0
aI0
aI0
asI2014
(lp329
I0
aI0
aI0
aI0
aI0
aI0
aI0
aI0
aI0
aI0
aI0
aI0
asI2015
(lp330
I0
aI0
aI0
aI0
aI0
aI0
aI0
aI1
aI1
aI0
aI0
aI0
assI31
(dp331
I2006
(lp332
I0
aI0
aI0
aI1
aI0
aI0
aI0
aI0
aI0
aI1
aI0
aI0
asI2007
(lp333
I0
aI0
aI0
aI1
aI2
aI2
aI1
aI0
aI1
aI0
aI1
aI0
asI2008
(lp334
I1
aI0
aI0
aI0
aI0
aI0
aI0
aI0
aI0
aI0
aI0
aI0
asI2009
(lp335
I1
aI1
aI1
aI2
aI2
aI2
aI2
aI2
aI3
aI4
aI3
aI3
asI2010
(lp336
I3
aI3
aI2
aI3
aI3
aI2
aI1
aI0
aI0
aI0
aI0
aI0
asI2011
(lp337
I0
aI1
aI1
aI2
aI4
aI3
aI2
aI1
aI0
aI0
aI0
aI0
asI2012
(lp338
I0
aI0
aI0
aI0
aI0
aI0
aI0
aI0
aI0
aI0
aI0
aI0
asI2013
(lp339
I0
aI0
aI0
aI0
aI0
aI0
aI0
aI0
aI0
aI0
aI0
aI0
asI2014
(lp340
I0
aI0
aI0
aI0
aI0
aI0
aI0
aI0
aI0
aI0
aI0
aI0
asI2015
(lp341
I0
aI0
aI0
aI0
aI0
aI1
aI2
aI1
aI1
aI1
aI0
aI0
assI32
(dp342
I2006
(lp343
I1
aI1
aI2
aI2
aI1
aI2
aI1
aI0
aI0
aI0
aI0
aI0
asI2007
(lp344
I0
aI0
aI0
aI1
aI0
aI0
aI0
aI0
aI0
aI1
aI0
aI0
asI2008
(lp345
I1
aI1
aI1
aI1
aI2
aI2
aI0
aI0
aI0
aI0
aI0
aI0
asI2009
(lp346
I0
aI0
aI0
aI0
aI0
aI0
aI0
aI1
aI0
aI0
aI0
aI0
asI2010
(lp347
I0
aI0
aI0
aI0
aI0
aI0
aI0
aI0
aI0
aI0
aI0
aI0
asI2011
(lp348
I0
aI0
aI1
aI3
aI3
aI3
aI3
aI3
aI2
aI3
aI4
aI4
asI2012
(lp349
I4
aI2
aI2
aI2
aI1
aI1
aI1
aI0
aI0
aI0
aI0
aI0
asI2013
(lp350
I0
aI0
aI0
aI0
aI1
aI1
aI0
aI0
aI0
aI0
aI0
aI0
asI2014
(lp351
I0
aI0
aI0
aI0
aI0
aI0
aI0
aI0
aI0
aI0
aI0
aI0
asI2015
(lp352
I0
aI0
aI0
aI0
aI0
aI0
aI0
aI0
aI0
aI0
aI0
aI0
ass.