(dp0
I2006
(lp1
S'2.3'
p2
aS'0'
p3
aS'0.4'
p4
aS'3.3'
p5
aS'19.7'
p6
aS'146.6'
p7
aS'187'
p8
aS'257.4'
p9
aS'163.2'
p10
aS'93'
p11
aS'8.9'
p12
aS'9.7'
p13
asI2007
(lp14
S'17.5'
p15
aS'7.9'
p16
aS'0.1'
p17
aS'1.9'
p18
aS'2.6'
p19
aS'191.9'
p20
aS'242.5'
p21
aS'171.5'
p22
aS'153.5'
p23
aS'37'
p24
aS'6.9'
p25
aS'3.2'
p26
asI2008
(lp27
g3
aS'0.8'
p28
aS'0.1'
p29
aS'5'
p30
aS'7.3'
p31
aS'186.6'
p32
aS'244.5'
p33
aS'212.1'
p34
aS'168.5'
p35
aS'43.4'
p36
aS'0.5'
p37
ag3
asI2009
(lp38
S'4.2'
p39
ag3
aS'1'
p40
aS'1.3'
p41
aS'40'
p42
aS'129.4'
p43
aS'147.4'
p44
aS'142.8'
p45
aS'155.2'
p46
aS'66.3'
p47
aS'6.9'
p48
aS'9.2'
p49
asI2010
(lp50
S'29'
p51
aS'122.3'
p52
ag3
aS'0.8'
p53
ag30
aS'125.4'
p54
aS'282.8'
p55
aS'216.9'
p56
aS'156.9'
p57
aS'1.2'
p58
ag3
ag3
asI2011
(lp59
S'0.6'
p60
ag3
aS'0.2'
p61
aS'2.7'
p62
ag30
aS'97.8'
p63
aS'203.8'
p64
aS'137.4'
p65
aS'76.4'
p66
aS'78.2'
p67
aS'0.2'
p68
ag3
asI2012
(lp69
S'0.6'
p70
aS'63.7'
p71
aS'1.4'
p72
aS'0.1'
p73
aS'9.2'
p74
aS'123.8'
p75
aS'202.2'
p76
aS'158.7'
p77
aS'69.1'
p78
aS'22'
p79
aS'6.1'
p80
aS'12.2'
p81
asI2013
(lp82
S'46'
p83
aS'0.1'
p84
aS'2.2'
p85
aS'0.1'
p86
aS'18.4'
p87
aS'114.4'
p88
aS'223.6'
p89
aS'153.9'
p90
aS'304.8'
p91
aS'60.2'
p92
aS'60'
p93
aS'79'
p94
asI2014
(lp95
S'6'
p96
ag3
ag40
aS'2'
p97
aS'59'
p98
aS'227'
p99
aS'157'
p100
aS'189'
p101
aS'184'
p102
aS'88'
p103
aS'63'
p104
ag96
asI2015
(lp105
S'7'
p106
aS'42'
p107
aS'140'
p108
ag106
aS'43'
p109
aS'183'
p110
aS'180'
p111
aS'136'
p112
aS'160'
p113
aS'197'
p114
aS'16'
p115
aS'35'
p116
as.