(dp0
I2006
(lp1
S'1.7'
p2
aS'0'
p3
aS'1.3'
p4
ag3
aS'1.3'
p5
aS'39.3'
p6
aS'199.6'
p7
aS'249.1'
p8
aS'152.5'
p9
aS'74.8'
p10
ag3
aS'12.2'
p11
asI2007
(lp12
S'22.5'
p13
aS'0.3'
p14
aS'0.1'
p15
ag3
ag3
aS'39.2'
p16
aS'146.8'
p17
aS'192.5'
p18
aS'171.3'
p19
aS'16'
p20
aS'18.2'
p21
aS'31.7'
p22
asI2008
(lp23
S'0.3'
p24
aS'1'
p25
aS'1.6'
p26
ag3
aS'0.1'
p27
aS'16.4'
p28
aS'236.2'
p29
aS'258.5'
p30
aS'190.3'
p31
aS'33.3'
p32
aS'0.2'
p33
ag3
asI2009
(lp34
S'2.5'
p35
ag3
ag25
ag3
aS'11.6'
p36
aS'72.3'
p37
aS'153.1'
p38
aS'165.5'
p39
aS'84.5'
p40
aS'148.2'
p41
aS'9.4'
p42
aS'14.5'
p43
asI2010
(lp44
S'15.9'
p45
aS'47'
p46
aS'1.9'
p47
aS'1.1'
p48
aS'0.6'
p49
aS'3.1'
p50
aS'154'
p51
aS'191.7'
p52
aS'175.5'
p53
aS'5.5'
p54
ag3
aS'0.1'
p55
asI2011
(lp56
S'0.1'
p57
ag3
ag3
aS'0.1'
p58
ag3
aS'3.8'
p59
aS'250.9'
p60
aS'222.6'
p61
aS'64.5'
p62
aS'6.8'
p63
aS'40.8'
p64
aS'5.7'
p65
asI2012
(lp66
S'0.6'
p67
aS'5.7'
p68
aS'0.1'
p69
aS'0.2'
p70
aS'0.3'
p71
aS'57.5'
p72
aS'181.4'
p73
aS'239.1'
p74
aS'122.7'
p75
aS'44.4'
p76
aS'5.2'
p77
aS'40'
p78
asI2013
(lp79
S'4'
p80
aS'0.1'
p81
aS'0.2'
p82
aS'0.2'
p83
aS'1.2'
p84
aS'35.7'
p85
aS'169.4'
p86
aS'197.2'
p87
aS'298.6'
p88
aS'16.1'
p89
aS'91.1'
p90
aS'32.9'
p91
asI2014
(lp92
g25
aS'0.2'
p93
aS'7'
p94
aS'0.2'
p95
aS'2'
p96
aS'105'
p97
aS'235'
p98
aS'241'
p99
aS'203'
p100
aS'26'
p101
aS'54'
p102
ag96
asI2015
(lp103
S'30'
p104
aS'33'
p105
aS'35'
p106
aS'13'
p107
aS'5'
p108
aS'81'
p109
aS'201'
p110
aS'256'
p111
aS'213'
p112
aS'116'
p113
aS'25'
p114
aS'41'
p115
as.